###############################################################################
#
# IAR ELF Linker V7.40.3.8902/W32 for ARM                 15/Oct/2015  16:43:49
# Copyright 2007-2015 IAR Systems AB.
#
#    Output file  =  
#        D:\Program Files\IAR Systems\MYWORK\HR1_0100_00_I720_new2\EWP\Debug
#        xRAM\Exe\hr1_0100_00_i720.out
#    Map file     =  
#        D:\Program Files\IAR Systems\MYWORK\HR1_0100_00_I720_new2\EWP\Debug
#        xRAM\List\hr1_0100_00_i720.map
#    Command line =  
#        "D:\Program Files\IAR Systems\MYWORK\HR1_0100_00_I720_new2\EWP\Debug
#        xRAM\Obj\AppCn.o" "D:\Program Files\IAR
#        Systems\MYWORK\HR1_0100_00_I720_new2\EWP\Debug
#        xRAM\Obj\APVComponent.o" "D:\Program Files\IAR
#        Systems\MYWORK\HR1_0100_00_I720_new2\EWP\Debug
#        xRAM\Obj\arm926ej_cp15_drv.o" "D:\Program Files\IAR
#        Systems\MYWORK\HR1_0100_00_I720_new2\EWP\Debug
#        xRAM\Obj\board_lowlevel.o" "D:\Program Files\IAR
#        Systems\MYWORK\HR1_0100_00_I720_new2\EWP\Debug xRAM\Obj\br_var.o"
#        "D:\Program Files\IAR Systems\MYWORK\HR1_0100_00_I720_new2\EWP\Debug
#        xRAM\Obj\callBackElement.o" "D:\Program Files\IAR
#        Systems\MYWORK\HR1_0100_00_I720_new2\EWP\Debug
#        xRAM\Obj\cicloGrammaEEPROM1.o" "D:\Program Files\IAR
#        Systems\MYWORK\HR1_0100_00_I720_new2\EWP\Debug
#        xRAM\Obj\cicloGrammaEEPROM2.o" "D:\Program Files\IAR
#        Systems\MYWORK\HR1_0100_00_I720_new2\EWP\Debug xRAM\Obj\cstartup.o"
#        "D:\Program Files\IAR Systems\MYWORK\HR1_0100_00_I720_new2\EWP\Debug
#        xRAM\Obj\CTpu.o" "D:\Program Files\IAR
#        Systems\MYWORK\HR1_0100_00_I720_new2\EWP\Debug xRAM\Obj\cy7.o"
#        "D:\Program Files\IAR Systems\MYWORK\HR1_0100_00_I720_new2\EWP\Debug
#        xRAM\Obj\DZ1Component.o" "D:\Program Files\IAR
#        Systems\MYWORK\HR1_0100_00_I720_new2\EWP\Debug
#        xRAM\Obj\DZ2Component.o" "D:\Program Files\IAR
#        Systems\MYWORK\HR1_0100_00_I720_new2\EWP\Debug
#        xRAM\Obj\DZ3Component.o" "D:\Program Files\IAR
#        Systems\MYWORK\HR1_0100_00_I720_new2\EWP\Debug
#        xRAM\Obj\DZ4Component.o" "D:\Program Files\IAR
#        Systems\MYWORK\HR1_0100_00_I720_new2\EWP\Debug
#        xRAM\Obj\DZ5Component.o" "D:\Program Files\IAR
#        Systems\MYWORK\HR1_0100_00_I720_new2\EWP\Debug xRAM\Obj\DZPacket.o"
#        "D:\Program Files\IAR Systems\MYWORK\HR1_0100_00_I720_new2\EWP\Debug
#        xRAM\Obj\extentiontoEEPROM.o" "D:\Program Files\IAR
#        Systems\MYWORK\HR1_0100_00_I720_new2\EWP\Debug xRAM\Obj\extmanager.o"
#        "D:\Program Files\IAR Systems\MYWORK\HR1_0100_00_I720_new2\EWP\Debug
#        xRAM\Obj\FLogTimer.o" "D:\Program Files\IAR
#        Systems\MYWORK\HR1_0100_00_I720_new2\EWP\Debug
#        xRAM\Obj\FLogTimerRES.o" "D:\Program Files\IAR
#        Systems\MYWORK\HR1_0100_00_I720_new2\EWP\Debug
#        xRAM\Obj\getINTERFACE.o" "D:\Program Files\IAR
#        Systems\MYWORK\HR1_0100_00_I720_new2\EWP\Debug xRAM\Obj\hu1.o"
#        "D:\Program Files\IAR Systems\MYWORK\HR1_0100_00_I720_new2\EWP\Debug
#        xRAM\Obj\hu1l.o" "D:\Program Files\IAR
#        Systems\MYWORK\HR1_0100_00_I720_new2\EWP\Debug xRAM\Obj\hu2.o"
#        "D:\Program Files\IAR Systems\MYWORK\HR1_0100_00_I720_new2\EWP\Debug
#        xRAM\Obj\hu2l.o" "D:\Program Files\IAR
#        Systems\MYWORK\HR1_0100_00_I720_new2\EWP\Debug xRAM\Obj\hu7.o"
#        "D:\Program Files\IAR Systems\MYWORK\HR1_0100_00_I720_new2\EWP\Debug
#        xRAM\Obj\hu7l.o" "D:\Program Files\IAR
#        Systems\MYWORK\HR1_0100_00_I720_new2\EWP\Debug xRAM\Obj\ici_api.o"
#        "D:\Program Files\IAR Systems\MYWORK\HR1_0100_00_I720_new2\EWP\Debug
#        xRAM\Obj\ILogTimer.o" "D:\Program Files\IAR
#        Systems\MYWORK\HR1_0100_00_I720_new2\EWP\Debug
#        xRAM\Obj\ILogTimerRES.o" "D:\Program Files\IAR
#        Systems\MYWORK\HR1_0100_00_I720_new2\EWP\Debug
#        xRAM\Obj\isNewZonaMethodVRT.o" "D:\Program Files\IAR
#        Systems\MYWORK\HR1_0100_00_I720_new2\EWP\Debug
#        xRAM\Obj\isZonaTrianMethodVRT.o" "D:\Program Files\IAR
#        Systems\MYWORK\HR1_0100_00_I720_new2\EWP\Debug
#        xRAM\Obj\JLINKDCC_HandleDataAbort.o" "D:\Program Files\IAR
#        Systems\MYWORK\HR1_0100_00_I720_new2\EWP\Debug
#        xRAM\Obj\JLINKDCC_Process.o" "D:\Program Files\IAR
#        Systems\MYWORK\HR1_0100_00_I720_new2\EWP\Debug xRAM\Obj\logicAPV.o"
#        "D:\Program Files\IAR Systems\MYWORK\HR1_0100_00_I720_new2\EWP\Debug
#        xRAM\Obj\logicDZ1.o" "D:\Program Files\IAR
#        Systems\MYWORK\HR1_0100_00_I720_new2\EWP\Debug xRAM\Obj\logicDZ2to5.o"
#        "D:\Program Files\IAR Systems\MYWORK\HR1_0100_00_I720_new2\EWP\Debug
#        xRAM\Obj\logicMTZ1.o" "D:\Program Files\IAR
#        Systems\MYWORK\HR1_0100_00_I720_new2\EWP\Debug
#        xRAM\Obj\logicMTZ2to5.o" "D:\Program Files\IAR
#        Systems\MYWORK\HR1_0100_00_I720_new2\EWP\Debug
#        xRAM\Obj\logicNZOP1to2.o" "D:\Program Files\IAR
#        Systems\MYWORK\HR1_0100_00_I720_new2\EWP\Debug xRAM\Obj\logicOF.o"
#        "D:\Program Files\IAR Systems\MYWORK\HR1_0100_00_I720_new2\EWP\Debug
#        xRAM\Obj\logicPF.o" "D:\Program Files\IAR
#        Systems\MYWORK\HR1_0100_00_I720_new2\EWP\Debug xRAM\Obj\logicPRM1.o"
#        "D:\Program Files\IAR Systems\MYWORK\HR1_0100_00_I720_new2\EWP\Debug
#        xRAM\Obj\logictimers.o" "D:\Program Files\IAR
#        Systems\MYWORK\HR1_0100_00_I720_new2\EWP\Debug
#        xRAM\Obj\logicTZNP1to5.o" "D:\Program Files\IAR
#        Systems\MYWORK\HR1_0100_00_I720_new2\EWP\Debug xRAM\Obj\logicUMM.o"
#        "D:\Program Files\IAR Systems\MYWORK\HR1_0100_00_I720_new2\EWP\Debug
#        xRAM\Obj\logicUROV.o" "D:\Program Files\IAR
#        Systems\MYWORK\HR1_0100_00_I720_new2\EWP\Debug xRAM\Obj\logicWL.o"
#        "D:\Program Files\IAR Systems\MYWORK\HR1_0100_00_I720_new2\EWP\Debug
#        xRAM\Obj\lpc32xx_clkpwr_driver.o" "D:\Program Files\IAR
#        Systems\MYWORK\HR1_0100_00_I720_new2\EWP\Debug
#        xRAM\Obj\lpc32xx_dma_driver.o" "D:\Program Files\IAR
#        Systems\MYWORK\HR1_0100_00_I720_new2\EWP\Debug
#        xRAM\Obj\lpc32xx_gpio_driver.o" "D:\Program Files\IAR
#        Systems\MYWORK\HR1_0100_00_I720_new2\EWP\Debug
#        xRAM\Obj\lpc32xx_hstimer_driver.o" "D:\Program Files\IAR
#        Systems\MYWORK\HR1_0100_00_I720_new2\EWP\Debug
#        xRAM\Obj\lpc32xx_intc_driver.o" "D:\Program Files\IAR
#        Systems\MYWORK\HR1_0100_00_I720_new2\EWP\Debug
#        xRAM\Obj\lpc32xx_spi_driver.o" "D:\Program Files\IAR
#        Systems\MYWORK\HR1_0100_00_I720_new2\EWP\Debug
#        xRAM\Obj\lpc32xx_uart_driver.o" "D:\Program Files\IAR
#        Systems\MYWORK\HR1_0100_00_I720_new2\EWP\Debug
#        xRAM\Obj\lpc32xx_vectors.o" "D:\Program Files\IAR
#        Systems\MYWORK\HR1_0100_00_I720_new2\EWP\Debug
#        xRAM\Obj\lpc_arm922t_cp15_driver.o" "D:\Program Files\IAR
#        Systems\MYWORK\HR1_0100_00_I720_new2\EWP\Debug
#        xRAM\Obj\lpcAV1_dma_driver.o" "D:\Program Files\IAR
#        Systems\MYWORK\HR1_0100_00_I720_new2\EWP\Debug
#        xRAM\Obj\lpcAV1_hsuart_driver.o" "D:\Program Files\IAR
#        Systems\MYWORK\HR1_0100_00_I720_new2\EWP\Debug
#        xRAM\Obj\lpcAV1_intc_driver.o" "D:\Program Files\IAR
#        Systems\MYWORK\HR1_0100_00_I720_new2\EWP\Debug
#        xRAM\Obj\lpcAV1_ssp_driver.o" "D:\Program Files\IAR
#        Systems\MYWORK\HR1_0100_00_I720_new2\EWP\Debug
#        xRAM\Obj\lpcAV1_timer_driver.o" "D:\Program Files\IAR
#        Systems\MYWORK\HR1_0100_00_I720_new2\EWP\Debug
#        xRAM\Obj\lpcAV1_uart_driver.o" "D:\Program Files\IAR
#        Systems\MYWORK\HR1_0100_00_I720_new2\EWP\Debug xRAM\Obj\lpu.o"
#        "D:\Program Files\IAR Systems\MYWORK\HR1_0100_00_I720_new2\EWP\Debug
#        xRAM\Obj\main.o" "D:\Program Files\IAR
#        Systems\MYWORK\HR1_0100_00_I720_new2\EWP\Debug
#        xRAM\Obj\missionCollectionEEPROM1.o" "D:\Program Files\IAR
#        Systems\MYWORK\HR1_0100_00_I720_new2\EWP\Debug
#        xRAM\Obj\missionCollectionEEPROM2.o" "D:\Program Files\IAR
#        Systems\MYWORK\HR1_0100_00_I720_new2\EWP\Debug
#        xRAM\Obj\MTZ1Component.o" "D:\Program Files\IAR
#        Systems\MYWORK\HR1_0100_00_I720_new2\EWP\Debug
#        xRAM\Obj\MTZ2Component.o" "D:\Program Files\IAR
#        Systems\MYWORK\HR1_0100_00_I720_new2\EWP\Debug
#        xRAM\Obj\MTZ3Component.o" "D:\Program Files\IAR
#        Systems\MYWORK\HR1_0100_00_I720_new2\EWP\Debug
#        xRAM\Obj\MTZ4Component.o" "D:\Program Files\IAR
#        Systems\MYWORK\HR1_0100_00_I720_new2\EWP\Debug
#        xRAM\Obj\MTZ5Component.o" "D:\Program Files\IAR
#        Systems\MYWORK\HR1_0100_00_I720_new2\EWP\Debug xRAM\Obj\MTZPacket.o"
#        "D:\Program Files\IAR Systems\MYWORK\HR1_0100_00_I720_new2\EWP\Debug
#        xRAM\Obj\NZOP1Component.o" "D:\Program Files\IAR
#        Systems\MYWORK\HR1_0100_00_I720_new2\EWP\Debug
#        xRAM\Obj\NZOP2Component.o" "D:\Program Files\IAR
#        Systems\MYWORK\HR1_0100_00_I720_new2\EWP\Debug xRAM\Obj\NZOPPacket.o"
#        "D:\Program Files\IAR Systems\MYWORK\HR1_0100_00_I720_new2\EWP\Debug
#        xRAM\Obj\OFComponent.o" "D:\Program Files\IAR
#        Systems\MYWORK\HR1_0100_00_I720_new2\EWP\Debug xRAM\Obj\partial_vfp.o"
#        "D:\Program Files\IAR Systems\MYWORK\HR1_0100_00_I720_new2\EWP\Debug
#        xRAM\Obj\periodOperations.o" "D:\Program Files\IAR
#        Systems\MYWORK\HR1_0100_00_I720_new2\EWP\Debug xRAM\Obj\PFComponent.o"
#        "D:\Program Files\IAR Systems\MYWORK\HR1_0100_00_I720_new2\EWP\Debug
#        xRAM\Obj\PRM1Component.o" "D:\Program Files\IAR
#        Systems\MYWORK\HR1_0100_00_I720_new2\EWP\Debug xRAM\Obj\psupervisor.o"
#        "D:\Program Files\IAR Systems\MYWORK\HR1_0100_00_I720_new2\EWP\Debug
#        xRAM\Obj\psvisor_help.o" "D:\Program Files\IAR
#        Systems\MYWORK\HR1_0100_00_I720_new2\EWP\Debug
#        xRAM\Obj\rangirtoEEPROM.o" "D:\Program Files\IAR
#        Systems\MYWORK\HR1_0100_00_I720_new2\EWP\Debug xRAM\Obj\rangmanager.o"
#        "D:\Program Files\IAR Systems\MYWORK\HR1_0100_00_I720_new2\EWP\Debug
#        xRAM\Obj\ResetSystemMenu.o" "D:\Program Files\IAR
#        Systems\MYWORK\HR1_0100_00_I720_new2\EWP\Debug
#        xRAM\Obj\SettingIci_APV.o" "D:\Program Files\IAR
#        Systems\MYWORK\HR1_0100_00_I720_new2\EWP\Debug
#        xRAM\Obj\SettingIci_data.o" "D:\Program Files\IAR
#        Systems\MYWORK\HR1_0100_00_I720_new2\EWP\Debug
#        xRAM\Obj\SettingIci_DZ1.o" "D:\Program Files\IAR
#        Systems\MYWORK\HR1_0100_00_I720_new2\EWP\Debug
#        xRAM\Obj\SettingIci_DZ2to5.o" "D:\Program Files\IAR
#        Systems\MYWORK\HR1_0100_00_I720_new2\EWP\Debug
#        xRAM\Obj\SettingIci_MTZ.o" "D:\Program Files\IAR
#        Systems\MYWORK\HR1_0100_00_I720_new2\EWP\Debug
#        xRAM\Obj\SettingIci_NZOP.o" "D:\Program Files\IAR
#        Systems\MYWORK\HR1_0100_00_I720_new2\EWP\Debug
#        xRAM\Obj\SettingIci_OF.o" "D:\Program Files\IAR
#        Systems\MYWORK\HR1_0100_00_I720_new2\EWP\Debug
#        xRAM\Obj\SettingIci_OFDZ.o" "D:\Program Files\IAR
#        Systems\MYWORK\HR1_0100_00_I720_new2\EWP\Debug
#        xRAM\Obj\SettingIci_OFMTZ.o" "D:\Program Files\IAR
#        Systems\MYWORK\HR1_0100_00_I720_new2\EWP\Debug
#        xRAM\Obj\SettingIci_OFTZNP.o" "D:\Program Files\IAR
#        Systems\MYWORK\HR1_0100_00_I720_new2\EWP\Debug
#        xRAM\Obj\SettingIci_OFUMM.o" "D:\Program Files\IAR
#        Systems\MYWORK\HR1_0100_00_I720_new2\EWP\Debug
#        xRAM\Obj\SettingIci_PRM1.o" "D:\Program Files\IAR
#        Systems\MYWORK\HR1_0100_00_I720_new2\EWP\Debug
#        xRAM\Obj\SettingIci_Rangir.o" "D:\Program Files\IAR
#        Systems\MYWORK\HR1_0100_00_I720_new2\EWP\Debug
#        xRAM\Obj\SettingIci_RangirAPV.o" "D:\Program Files\IAR
#        Systems\MYWORK\HR1_0100_00_I720_new2\EWP\Debug
#        xRAM\Obj\SettingIci_RangirDZ.o" "D:\Program Files\IAR
#        Systems\MYWORK\HR1_0100_00_I720_new2\EWP\Debug
#        xRAM\Obj\SettingIci_RangirMTZ.o" "D:\Program Files\IAR
#        Systems\MYWORK\HR1_0100_00_I720_new2\EWP\Debug
#        xRAM\Obj\SettingIci_RangirNZOP.o" "D:\Program Files\IAR
#        Systems\MYWORK\HR1_0100_00_I720_new2\EWP\Debug
#        xRAM\Obj\SettingIci_RangirOF.o" "D:\Program Files\IAR
#        Systems\MYWORK\HR1_0100_00_I720_new2\EWP\Debug
#        xRAM\Obj\SettingIci_RangirPRM1.o" "D:\Program Files\IAR
#        Systems\MYWORK\HR1_0100_00_I720_new2\EWP\Debug
#        xRAM\Obj\SettingIci_RangirTZNP.o" "D:\Program Files\IAR
#        Systems\MYWORK\HR1_0100_00_I720_new2\EWP\Debug
#        xRAM\Obj\SettingIci_RangirUMM.o" "D:\Program Files\IAR
#        Systems\MYWORK\HR1_0100_00_I720_new2\EWP\Debug
#        xRAM\Obj\SettingIci_RangirUROV.o" "D:\Program Files\IAR
#        Systems\MYWORK\HR1_0100_00_I720_new2\EWP\Debug
#        xRAM\Obj\SettingIci_TZNP.o" "D:\Program Files\IAR
#        Systems\MYWORK\HR1_0100_00_I720_new2\EWP\Debug
#        xRAM\Obj\SettingIci_UMM.o" "D:\Program Files\IAR
#        Systems\MYWORK\HR1_0100_00_I720_new2\EWP\Debug
#        xRAM\Obj\SettingIci_UROV.o" "D:\Program Files\IAR
#        Systems\MYWORK\HR1_0100_00_I720_new2\EWP\Debug xRAM\Obj\ssp1.o"
#        "D:\Program Files\IAR Systems\MYWORK\HR1_0100_00_I720_new2\EWP\Debug
#        xRAM\Obj\ssp1L.o" "D:\Program Files\IAR
#        Systems\MYWORK\HR1_0100_00_I720_new2\EWP\Debug
#        xRAM\Obj\start_settings.o" "D:\Program Files\IAR
#        Systems\MYWORK\HR1_0100_00_I720_new2\EWP\Debug xRAM\Obj\systemMenu.o"
#        "D:\Program Files\IAR Systems\MYWORK\HR1_0100_00_I720_new2\EWP\Debug
#        xRAM\Obj\toSpeedDIS.o" "D:\Program Files\IAR
#        Systems\MYWORK\HR1_0100_00_I720_new2\EWP\Debug
#        xRAM\Obj\toSpeedOptim.o" "D:\Program Files\IAR
#        Systems\MYWORK\HR1_0100_00_I720_new2\EWP\Debug
#        xRAM\Obj\toSpeedZonaVRT.o" "D:\Program Files\IAR
#        Systems\MYWORK\HR1_0100_00_I720_new2\EWP\Debug xRAM\Obj\translateI.o"
#        "D:\Program Files\IAR Systems\MYWORK\HR1_0100_00_I720_new2\EWP\Debug
#        xRAM\Obj\ttbl.o" "D:\Program Files\IAR
#        Systems\MYWORK\HR1_0100_00_I720_new2\EWP\Debug xRAM\Obj\TxtStream.o"
#        "D:\Program Files\IAR Systems\MYWORK\HR1_0100_00_I720_new2\EWP\Debug
#        xRAM\Obj\TZNP1Component.o" "D:\Program Files\IAR
#        Systems\MYWORK\HR1_0100_00_I720_new2\EWP\Debug
#        xRAM\Obj\TZNP2Component.o" "D:\Program Files\IAR
#        Systems\MYWORK\HR1_0100_00_I720_new2\EWP\Debug
#        xRAM\Obj\TZNP3Component.o" "D:\Program Files\IAR
#        Systems\MYWORK\HR1_0100_00_I720_new2\EWP\Debug
#        xRAM\Obj\TZNP4Component.o" "D:\Program Files\IAR
#        Systems\MYWORK\HR1_0100_00_I720_new2\EWP\Debug
#        xRAM\Obj\TZNP5Component.o" "D:\Program Files\IAR
#        Systems\MYWORK\HR1_0100_00_I720_new2\EWP\Debug xRAM\Obj\TZNPPacket.o"
#        "D:\Program Files\IAR Systems\MYWORK\HR1_0100_00_I720_new2\EWP\Debug
#        xRAM\Obj\u3.o" "D:\Program Files\IAR
#        Systems\MYWORK\HR1_0100_00_I720_new2\EWP\Debug xRAM\Obj\u3l.o"
#        "D:\Program Files\IAR Systems\MYWORK\HR1_0100_00_I720_new2\EWP\Debug
#        xRAM\Obj\UMMComponent.o" "D:\Program Files\IAR
#        Systems\MYWORK\HR1_0100_00_I720_new2\EWP\Debug
#        xRAM\Obj\UROVComponent.o" "D:\Program Files\IAR
#        Systems\MYWORK\HR1_0100_00_I720_new2\EWP\Debug
#        xRAM\Obj\ustavkitoEEPROM.o" "D:\Program Files\IAR
#        Systems\MYWORK\HR1_0100_00_I720_new2\EWP\Debug xRAM\Obj\ustmanager.o"
#        "D:\Program Files\IAR Systems\MYWORK\HR1_0100_00_I720_new2\EWP\Debug
#        xRAM\Obj\ViewMenuCnf.o" "D:\Program Files\IAR
#        Systems\MYWORK\HR1_0100_00_I720_new2\EWP\Debug
#        xRAM\Obj\viewMenuList.o" "D:\Program Files\IAR
#        Systems\MYWORK\HR1_0100_00_I720_new2\EWP\Debug
#        xRAM\Obj\ViewMenuRang.o" "D:\Program Files\IAR
#        Systems\MYWORK\HR1_0100_00_I720_new2\EWP\Debug xRAM\Obj\ViewMenuReg.o"
#        "D:\Program Files\IAR Systems\MYWORK\HR1_0100_00_I720_new2\EWP\Debug
#        xRAM\Obj\viewMenuSub.o" "D:\Program Files\IAR
#        Systems\MYWORK\HR1_0100_00_I720_new2\EWP\Debug xRAM\Obj\ViewMenuTip.o"
#        "D:\Program Files\IAR Systems\MYWORK\HR1_0100_00_I720_new2\EWP\Debug
#        xRAM\Obj\ViewMenuWideLog.o" "D:\Program Files\IAR
#        Systems\MYWORK\HR1_0100_00_I720_new2\EWP\Debug xRAM\Obj\ViewRepozit.o"
#        "D:\Program Files\IAR Systems\MYWORK\HR1_0100_00_I720_new2\EWP\Debug
#        xRAM\Obj\ViewRepozitWL.o" "D:\Program Files\IAR
#        Systems\MYWORK\HR1_0100_00_I720_new2\EWP\Debug
#        xRAM\Obj\widelogmanager.o" "D:\Program Files\IAR
#        Systems\MYWORK\HR1_0100_00_I720_new2\EWP\Debug xRAM\Obj\WLComponent.o"
#        --redirect _Printf=_PrintfFull --redirect _Scanf=_ScanfFull -o
#        "D:\Program Files\IAR Systems\MYWORK\HR1_0100_00_I720_new2\EWP\Debug
#        xRAM\Exe\hr1_0100_00_i720.out" --map "D:\Program Files\IAR
#        Systems\MYWORK\HR1_0100_00_I720_new2\EWP\Debug
#        xRAM\List\hr1_0100_00_i720.map" --config "D:\Program Files\IAR
#        Systems\MYWORK\HR1_0100_00_I720_new2\EWP\..\cfg\LPC3000_xRAM.icf"
#        --entry __iar_program_start --vfe
#
###############################################################################

*******************************************************************************
*** MESSAGES
***


  place in RAM_code_region                { section Fast_function, readonly };
  ^
"D:\Program Files\IAR Systems\MYWORK\HR1_0100_00_I720_new2\EWP\..\cfg\LPC3000_xRAM.icf",67  Warning[Lp005]: 
          placement includes a mix of sections with content (example
          "ro data section .data_init in AppCn.o") and sections without content
          (example "rw code section Fast_function in AppCn.o symbols: [ExecExis
          tProxy, ExecProxy, ProcessReceiveEvt, UpdateRVGoosBCTpuUnit, ExecExis
          tProxyManager, ProcessTransmitEvt, UpdateAppData, UpdateRVGoosACTpuUn
          it]")

  place in RAM_code_region                { section Fast_function, readonly };
  ^
"D:\Program Files\IAR Systems\MYWORK\HR1_0100_00_I720_new2\EWP\..\cfg\LPC3000_xRAM.icf",67  Warning[Lp006]: 
          placement includes a mix of writable sections (example "rw code secti
          on Fast_function in AppCn.o symbols: [ExecExistProxy, ExecProxy, Proc
          essReceiveEvt, UpdateRVGoosBCTpuUnit, ExecExistProxyManager, ProcessT
          ransmitEvt, UpdateAppData, UpdateRVGoosACTpuUnit]") and non-writable
          sections (example "ro data section .data_init in AppCn.o")


*******************************************************************************
*** RUNTIME MODEL ATTRIBUTES
***

CppFlavor       = *
__SystemLibrary = DLib


*******************************************************************************
*** PLACEMENT SUMMARY
***

"A1":  place at start of [0xe1000000-0xe10000ff] { section .cstartup };
"P1":  place in [from 0xe1000100 to 0xe107efff] { section Fast_function, ro };
"P2":  place in [from 0xe107f000 to 0xe107ffff] {
          section Fast_function_no_cache, ro section CODE_NOCACHE };
"P3":  place in [from 0xe1080000 to 0xe10fefff] {
          zi, rw, block CSTACK, block SVC_STACK, block IRQ_STACK,
          block FIQ_STACK, block UND_STACK, block ABT_STACK, block HEAP };
"P4":  place in [from 0xe10ff000 to 0xe10fffff] { rw data section DMA_BUFFERS };
"P5":  place in [from 0x08000100 to 0x0803ffff] {
          rw data section MMU_TT, section I_RAM_variables,
          section IRAM_function };

  Section                 Kind        Address     Size  Object
  -------                 ----        -------     ----  ------
"P5":                                           0x4c00
  MMU_TT                  uninit   0x08004000   0x4000  ttbl.o [1]
  MMU_TT                  uninit   0x08008000    0x400  ttbl.o [1]
  MMU_TT                  uninit   0x08008800    0x400  ttbl.o [1]
                                 - 0x08008c00   0x4c00

Absolute sections, part 1 of 20:                   0x4
  .noinit                 uninit   0x31080000      0x4  board_lowlevel.o [1]
                                 - 0x31080004      0x4

Absolute sections, part 2 of 20:                   0x4
  .noinit                 uninit   0x31080008      0x4  board_lowlevel.o [1]
                                 - 0x3108000c      0x4

Absolute sections, part 3 of 20:                   0x4
  .noinit                 uninit   0x31080080      0x4  board_lowlevel.o [1]
                                 - 0x31080084      0x4

Absolute sections, part 4 of 20:                  0x10
  .noinit                 uninit   0x31080200      0x4  board_lowlevel.o [1]
  .noinit                 uninit   0x31080204      0x4  board_lowlevel.o [1]
  .noinit                 uninit   0x31080208      0x4  board_lowlevel.o [1]
  .noinit                 uninit   0x3108020c      0x4  board_lowlevel.o [1]
                                 - 0x31080210     0x10

Absolute sections, part 5 of 20:                   0x8
  .noinit                 uninit   0x31080214      0x4  board_lowlevel.o [1]
  .noinit                 uninit   0x31080218      0x4  board_lowlevel.o [1]
                                 - 0x3108021c      0x8

Absolute sections, part 6 of 20:                  0x10
  .noinit                 uninit   0x31080220      0x4  board_lowlevel.o [1]
  .noinit                 uninit   0x31080224      0x4  board_lowlevel.o [1]
  .noinit                 uninit   0x31080228      0x4  board_lowlevel.o [1]
  .noinit                 uninit   0x3108022c      0x4  board_lowlevel.o [1]
                                 - 0x31080230     0x10

Absolute sections, part 7 of 20:                   0x8
  .noinit                 uninit   0x31080234      0x4  board_lowlevel.o [1]
  .noinit                 uninit   0x31080238      0x4  board_lowlevel.o [1]
                                 - 0x3108023c      0x8

Absolute sections, part 8 of 20:                  0x10
  .noinit                 uninit   0x31080240      0x4  board_lowlevel.o [1]
  .noinit                 uninit   0x31080244      0x4  board_lowlevel.o [1]
  .noinit                 uninit   0x31080248      0x4  board_lowlevel.o [1]
  .noinit                 uninit   0x3108024c      0x4  board_lowlevel.o [1]
                                 - 0x31080250     0x10

Absolute sections, part 9 of 20:                   0x8
  .noinit                 uninit   0x31080254      0x4  board_lowlevel.o [1]
  .noinit                 uninit   0x31080258      0x4  board_lowlevel.o [1]
                                 - 0x3108025c      0x8

Absolute sections, part 10 of 20:                 0x10
  .noinit                 uninit   0x31080260      0x4  board_lowlevel.o [1]
  .noinit                 uninit   0x31080264      0x4  board_lowlevel.o [1]
  .noinit                 uninit   0x31080268      0x4  board_lowlevel.o [1]
  .noinit                 uninit   0x3108026c      0x4  board_lowlevel.o [1]
                                 - 0x31080270     0x10

Absolute sections, part 11 of 20:                  0x8
  .noinit                 uninit   0x31080274      0x4  board_lowlevel.o [1]
  .noinit                 uninit   0x31080278      0x4  board_lowlevel.o [1]
                                 - 0x3108027c      0x8

Absolute sections, part 12 of 20:                  0x4
  .noinit                 uninit   0x31080400      0x4  board_lowlevel.o [1]
                                 - 0x31080404      0x4

Absolute sections, part 13 of 20:                  0x4
  .noinit                 uninit   0x31080440      0x4  board_lowlevel.o [1]
                                 - 0x31080444      0x4

Absolute sections, part 14 of 20:                  0x4
  .noinit                 uninit   0x31080460      0x4  board_lowlevel.o [1]
                                 - 0x31080464      0x4

Absolute sections, part 15 of 20:                  0x4
  .noinit                 uninit   0x31080480      0x4  board_lowlevel.o [1]
                                 - 0x31080484      0x4

Absolute sections, part 16 of 20:                  0x4
  .noinit                 uninit   0x40004014      0x4  board_lowlevel.o [1]
                                 - 0x40004018      0x4

Absolute sections, part 17 of 20:                  0xc
  .noinit                 uninit   0x40004040      0x4  board_lowlevel.o [1]
  .noinit                 uninit   0x40004044      0x4  board_lowlevel.o [1]
  .noinit                 uninit   0x40004048      0x4  board_lowlevel.o [1]
                                 - 0x4000404c      0xc

Absolute sections, part 18 of 20:                  0x4
  .noinit                 uninit   0x40004050      0x4  board_lowlevel.o [1]
                                 - 0x40004054      0x4

Absolute sections, part 19 of 20:                  0x4
  .noinit                 uninit   0x40004058      0x4  board_lowlevel.o [1]
                                 - 0x4000405c      0x4

Absolute sections, part 20 of 20:                  0x4
  .noinit                 uninit   0x40004068      0x4  board_lowlevel.o [1]
                                 - 0x4000406c      0x4

"A1":                                             0xe4
  .cstartup               ro code  0xe1000000     0xe4  cstartup.o [1]
                                 - 0xe10000e4     0xe4

"P1":                                          0x4e1d5
  .text                   ro code  0xe1000100   0x34bc  AppCn.o [1]
  .text                   ro code  0xe10035bc    0x150  CTpu.o [1]
  .text                   ro code  0xe100370c     0xd4  ABImemcpy.o [5]
  .text                   ro code  0xe10037e0     0x54  strlen.o [5]
  .text                   ro code  0xe1003834     0x98  strncpy.o [5]
  .text                   ro code  0xe10038cc     0x78  ABImemset.o [5]
  .text                   ro code  0xe1003944   0x27b8  isNewZonaMethodVRT.o [1]
  .text                   ro code  0xe10060fc     0x94  ceil.o [4]
  .text                   ro code  0xe1006190     0xb8  DblToS64.o [4]
  .text                   ro code  0xe1006248     0x80  acos.o [4]
  .text                   ro code  0xe10062c8     0x98  asin.o [4]
  .text                   ro code  0xe1006360     0x20  sqrt.o [4]
  .text                   ro code  0xe1006380    0x120  xatan.o [4]
  .text                   ro code  0xe10064a0     0x14  iarEdom.o [5]
  .text                   ro code  0xe10064b4      0xc  errno.o [3]
  .text                   ro code  0xe10064c0      0x4  xtls.o [3]
  .text                   ro code  0xe10064c4   0x1b20  SettingIci_DZ2to5.o [1]
  .text                   ro code  0xe1007fe4    0x794  ResetSystemMenu.o [1]
  .text                   ro code  0xe1008778    0x6a4  psvisor_help.o [1]
  .text                   ro code  0xe1008e1c    0x33c  ViewMenuCnf.o [1]
  .text                   ro code  0xe1009158    0x264  TxtStream.o [1]
  .text                   ro code  0xe10093bc    0xf2c  systemMenu.o [1]
  .text                   ro code  0xe100a2e8    0x2a0  main.o [1]
  .text                   ro code  0xe100a588    0x8f0  rangmanager.o [1]
  .text                   ro code  0xe100ae78     0xfc  ViewMenuWideLog.o [1]
  .text                   ro code  0xe100af74    0x508  ustmanager.o [1]
  .text                   ro code  0xe100b47c   0x14ac  psupervisor.o [1]
  .text                   ro code  0xe100c928     0x58  logictimers.o [1]
  .text                   ro code  0xe100c980    0x1a8  I32DivMod.o [5]
  .text                   ro code  0xe100cb28      0x4  viewMenuList.o [1]
  .text                   ro code  0xe100cb2c     0xe0  viewMenuSub.o [1]
  .text                   ro code  0xe100cc0c     0x68  strcpy.o [5]
  .text                   ro code  0xe100cc74     0x58  sprintf.o [3]
  .text                   ro code  0xe100cccc     0x30  strcat.o [3]
  .text                   ro code  0xe100ccfc     0x74  memcmp.o [5]
  .text                   ro code  0xe100cd70    0x1bc  u3.o [1]
  .text                   ro code  0xe100cf2c    0x760  periodOperations.o [1]
  .text                   ro code  0xe100d68c    0x564  arm926ej_cp15_drv.o [1]
  .text                   ro code  0xe100dbf0     0xfc  callBackElement.o [1]
  .text                   ro code  0xe100dcec    0x490  lpc32xx_intc_driver.o [1]
  .text                   ro code  0xe100e17c    0xb88  lpc32xx_clkpwr_driver.o [1]
  .text                   ro code  0xe100ed04     0xdc  widelogmanager.o [1]
  .text                   ro code  0xe100ede0    0x2b8  ViewRepozit.o [1]
  .text                   ro code  0xe100f098    0x2e8  ViewRepozitWL.o [1]
  .text                   ro code  0xe100f380      0x4  IntDivZer.o [5]
  .text                   ro code  0xe100f384   0x163e  xprintffull.o [3]
  .rodata                 const    0xe10109c2      0x2  lpcAV1_ssp_driver.o [1]
  .text                   ro code  0xe10109c4    0x210  lpcAV1_timer_driver.o [1]
  .text                   ro code  0xe1010bd4    0x27c  ssp1.o [1]
  .text                   ro code  0xe1010e50    0x89c  lpu.o [1]
  .text                   ro code  0xe10116ec    0x450  lpcAV1_intc_driver.o [1]
  .text                   ro code  0xe1011b3c     0x3c  lpc32xx_gpio_driver.o [1]
  .text                   ro code  0xe1011b78    0x58c  JLINKDCC_Process.o [1]
  .text                   ro code  0xe1012104    0xbfc  SettingIci_data.o [1]
  .text                   ro code  0xe1012d00     0x20  uread4.o [5]
  .text                   ro code  0xe1012d20     0x58  lpc_arm922t_cp15_driver.o [1]
  .text                   ro code  0xe1012d78    0x130  I64DivMod.o [5]
  .text                   ro code  0xe1012ea8     0x20  strchr.o [5]
  .text                   ro code  0xe1012ec8     0x94  memchr.o [5]
  .text                   ro code  0xe1012f5c     0x78  xdnorm.o [4]
  .text                   ro code  0xe1012fd4     0x38  DblCmpLe.o [4]
  .text                   ro code  0xe101300c     0x38  DblCmpGe.o [4]
  .text                   ro code  0xe1013044    0x1dc  xdscale.o [4]
  .text                   ro code  0xe1013220     0x10  DblToS32.o [4]
  .text                   ro code  0xe1013230     0x10  S32ToDbl.o [4]
  .text                   ro code  0xe1013240     0x14  DblSub.o [4]
  .text                   ro code  0xe1013254     0xf8  partial_vfp.o [1]
  .text                   ro code  0xe101334c     0x10  DblToU32.o [4]
  .text                   ro code  0xe101335c     0x34  div.o [3]
  .text                   ro code  0xe1013390    0x690  lpcAV1_ssp_driver.o [1]
  .text                   ro code  0xe1013a20    0x308  lpcAV1_dma_driver.o [1]
  .text                   ro code  0xe1013d28    0x4f4  SettingIci_Rangir.o [1]
  .text                   ro code  0xe101421c   0x1a28  SettingIci_MTZ.o [1]
  .text                   ro code  0xe1015c44    0x4f0  SettingIci_UMM.o [1]
  .text                   ro code  0xe1016134    0x3d4  SettingIci_DZ1.o [1]
  .text                   ro code  0xe1016508   0x1328  SettingIci_TZNP.o [1]
  .text                   ro code  0xe1017830     0xd0  SettingIci_PRM1.o [1]
  .text                   ro code  0xe1017900    0x3fc  SettingIci_NZOP.o [1]
  .text                   ro code  0xe1017cfc    0xbc8  SettingIci_APV.o [1]
  .text                   ro code  0xe10188c4    0x9f8  SettingIci_UROV.o [1]
  .text                   ro code  0xe10192bc    0xd24  SettingIci_OF.o [1]
  .text                   ro code  0xe1019fe0     0x8c  ustavkitoEEPROM.o [1]
  .text                   ro code  0xe101a06c      0x4  I64DivZer.o [5]
  .text                   ro code  0xe101a070    0xea0  SettingIci_RangirMTZ.o [1]
  .text                   ro code  0xe101af10    0x450  SettingIci_RangirUMM.o [1]
  .text                   ro code  0xe101b360    0xa70  SettingIci_RangirTZNP.o [1]
  .text                   ro code  0xe101bdd0    0xaa0  SettingIci_RangirDZ.o [1]
  .text                   ro code  0xe101c870     0xb0  SettingIci_RangirPRM1.o [1]
  .text                   ro code  0xe101c920    0x320  SettingIci_RangirNZOP.o [1]
  .text                   ro code  0xe101cc40    0x110  SettingIci_RangirAPV.o [1]
  .text                   ro code  0xe101cd50     0xe0  SettingIci_RangirUROV.o [1]
  .text                   ro code  0xe101ce30    0x620  SettingIci_RangirOF.o [1]
  .text                   ro code  0xe101d450    0xba4  SettingIci_OFDZ.o [1]
  .text                   ro code  0xe101dff4    0x964  SettingIci_OFMTZ.o [1]
  .text                   ro code  0xe101e958    0x364  SettingIci_OFUMM.o [1]
  .text                   ro code  0xe101ecbc    0xae4  SettingIci_OFTZNP.o [1]
  .text                   ro code  0xe101f7a0    0x474  missionCollectionEEPROM1.o [1]
  .text                   ro code  0xe101fc14   0x16f8  PRM1Component.o [1]
  .text                   ro code  0xe102130c   0x15dc  OFComponent.o [1]
  .text                   ro code  0xe10228e8   0x12a8  DZ2Component.o [1]
  .text                   ro code  0xe1023b90    0xdec  isZonaTrianMethodVRT.o [1]
  .text                   ro code  0xe102497c    0xf7c  APVComponent.o [1]
  .text                   ro code  0xe10258f8    0xe64  MTZ2Component.o [1]
  .text                   ro code  0xe102675c    0xbd0  MTZ1Component.o [1]
  .text                   ro code  0xe102732c    0xd7c  DZ1Component.o [1]
  .text                   ro code  0xe10280a8    0xbe8  logicUMM.o [1]
  .text                   ro code  0xe1028c90    0xb58  TZNP1Component.o [1]
  .text                   ro code  0xe10297e8    0xabc  NZOP1Component.o [1]
  .text                   ro code  0xe102a2a4    0xa4c  UMMComponent.o [1]
  .text                   ro code  0xe102acf0    0x810  UROVComponent.o [1]
  .text                   ro code  0xe102b500    0x4b4  lpcAV1_hsuart_driver.o [1]
  .text                   ro code  0xe102b9b4    0x454  ViewMenuRang.o [1]
  .text                   ro code  0xe102be08    0x41c  MTZ3Component.o [1]
  .text                   ro code  0xe102c224    0x41c  MTZ5Component.o [1]
  .text                   ro code  0xe102c640    0x3f0  TZNP2Component.o [1]
  .text                   ro code  0xe102ca30    0x3e0  MTZ4Component.o [1]
  .text                   ro code  0xe102ce10    0x3d8  NZOP2Component.o [1]
  .text                   ro code  0xe102d1e8    0x3d0  DZ5Component.o [1]
  .text                   ro code  0xe102d5b8    0x3b0  DZ4Component.o [1]
  .text                   ro code  0xe102d968    0x3b0  TZNP3Component.o [1]
  .text                   ro code  0xe102dd18    0x3b0  TZNP4Component.o [1]
  .text                   ro code  0xe102e0c8    0x3b0  TZNP5Component.o [1]
  .text                   ro code  0xe102e478    0x358  DZ3Component.o [1]
  .text                   ro code  0xe102e7d0    0x310  WLComponent.o [1]
  .text                   ro code  0xe102eae0    0x308  ViewMenuReg.o [1]
  .text                   ro code  0xe102ede8    0x300  TZNPPacket.o [1]
  .text                   ro code  0xe102f0e8    0x2f0  DZPacket.o [1]
  .text                   ro code  0xe102f3d8    0x2f0  MTZPacket.o [1]
  .text                   ro code  0xe102f6c8    0x2b8  board_lowlevel.o [1]
  .text                   ro code  0xe102f980    0x124  start_settings.o [1]
  .text                   ro code  0xe102faa4    0x258  NZOPPacket.o [1]
  .text                   ro code  0xe102fcfc    0x1d0  lpc32xx_vectors.o [1]
  .text                   ro code  0xe102fecc    0x1be  lz77_init.o [5]
  .text                   ro code  0xe103008c      0x8  abort.o [3]
  .text                   ro code  0xe1030094     0x14  XXexit.o [5]
  .text                   ro code  0xe10300a8    0x1b8  PFComponent.o [1]
  .rodata                 const    0xe1030260    0x110  ttbl.o [1]
  .text                   ro code  0xe1030370     0xd8  hu2l.o [1]
  .rodata                 const    0xe1030448     0x6c  lpu.o [1]
  .text                   ro code  0xe10304b4     0x68  ici_api.o [1]
  .rodata                 const    0xe103051c     0x48  AppCn.o [1]
  .intvec                 ro code  0xe1030564     0x40  cstartup.o [1]
  .text                   ro code  0xe10305a4     0x3c  zero_init3.o [5]
  .text                   ro code  0xe10305e0     0x38  ABImemset48.o [5]
  .text                   ro code  0xe1030618     0x2c  cmain.o [5]
  .text                   ro code  0xe1030644      0x8  low_level_init.o [3]
  .text                   ro code  0xe103064c     0x28  data_init.o [5]
  .text                   ro code  0xe1030674      0x4  exit.o [3]
  .text                   ro code  0xe1030678     0x10  cexit.o [5]
  .text                   ro code  0xe1030688     0x28  hu7l.o [1]
  .text                   ro code  0xe10306b0     0x28  ssp1L.o [1]
  .rodata                 const    0xe10306d8     0x24  APVComponent.o [1]
  .rodata                 const    0xe10306fc     0x24  APVComponent.o [1]
  .iar.init_table         const    0xe1030720     0x6c  - Linker created -
  .rodata                 const    0xe103078c     0x1c  PRM1Component.o [1]
  .rodata                 const    0xe10307a8     0x18  APVComponent.o [1]
  .rodata                 const    0xe10307c0     0x18  APVComponent.o [1]
  .rodata                 const    0xe10307d8     0x18  MTZ1Component.o [1]
  .rodata                 const    0xe10307f0     0x18  NZOP1Component.o [1]
  .rodata                 const    0xe1030808     0x18  NZOP1Component.o [1]
  .rodata                 const    0xe1030820     0x18  NZOP2Component.o [1]
  .rodata                 const    0xe1030838     0x18  NZOP2Component.o [1]
  .rodata                 const    0xe1030850     0x18  OFComponent.o [1]
  .rodata                 const    0xe1030868     0x18  OFComponent.o [1]
  .rodata                 const    0xe1030880     0x18  PRM1Component.o [1]
  .rodata                 const    0xe1030898     0x18  PRM1Component.o [1]
  .rodata                 const    0xe10308b0     0x18  PRM1Component.o [1]
  .rodata                 const    0xe10308c8     0x18  ResetSystemMenu.o [1]
  .rodata                 const    0xe10308e0     0x14  APVComponent.o [1]
  .rodata                 const    0xe10308f4     0x14  DZ1Component.o [1]
  .rodata                 const    0xe1030908     0x14  DZ2Component.o [1]
  .rodata                 const    0xe103091c     0x14  DZ3Component.o [1]
  .rodata                 const    0xe1030930     0x14  DZ4Component.o [1]
  .rodata                 const    0xe1030944     0x14  DZ5Component.o [1]
  .rodata                 const    0xe1030958     0x14  MTZ1Component.o [1]
  .rodata                 const    0xe103096c     0x14  MTZ1Component.o [1]
  .rodata                 const    0xe1030980     0x14  MTZ1Component.o [1]
  .rodata                 const    0xe1030994     0x14  MTZ1Component.o [1]
  .rodata                 const    0xe10309a8     0x14  MTZ1Component.o [1]
  .rodata                 const    0xe10309bc     0x14  MTZ2Component.o [1]
  .rodata                 const    0xe10309d0     0x14  MTZ2Component.o [1]
  .rodata                 const    0xe10309e4     0x14  MTZ2Component.o [1]
  .rodata                 const    0xe10309f8     0x14  MTZ2Component.o [1]
  .rodata                 const    0xe1030a0c     0x14  MTZ2Component.o [1]
  .rodata                 const    0xe1030a20     0x14  MTZ3Component.o [1]
  .rodata                 const    0xe1030a34     0x14  MTZ3Component.o [1]
  .rodata                 const    0xe1030a48     0x14  MTZ3Component.o [1]
  .rodata                 const    0xe1030a5c     0x14  MTZ3Component.o [1]
  .rodata                 const    0xe1030a70     0x14  MTZ4Component.o [1]
  .rodata                 const    0xe1030a84     0x14  MTZ4Component.o [1]
  .rodata                 const    0xe1030a98     0x14  MTZ4Component.o [1]
  .rodata                 const    0xe1030aac     0x14  MTZ4Component.o [1]
  .rodata                 const    0xe1030ac0     0x14  MTZ5Component.o [1]
  .rodata                 const    0xe1030ad4     0x14  MTZ5Component.o [1]
  .rodata                 const    0xe1030ae8     0x14  MTZ5Component.o [1]
  .rodata                 const    0xe1030afc     0x14  MTZ5Component.o [1]
  .rodata                 const    0xe1030b10     0x14  NZOP1Component.o [1]
  .rodata                 const    0xe1030b24     0x14  NZOP1Component.o [1]
  .rodata                 const    0xe1030b38     0x14  NZOP1Component.o [1]
  .rodata                 const    0xe1030b4c     0x14  NZOP1Component.o [1]
  .rodata                 const    0xe1030b60     0x14  NZOP1Component.o [1]
  .rodata                 const    0xe1030b74     0x14  NZOP1Component.o [1]
  .rodata                 const    0xe1030b88     0x14  NZOP1Component.o [1]
  .rodata                 const    0xe1030b9c     0x14  NZOP1Component.o [1]
  .rodata                 const    0xe1030bb0     0x14  NZOP1Component.o [1]
  .rodata                 const    0xe1030bc4     0x14  NZOP2Component.o [1]
  .rodata                 const    0xe1030bd8     0x14  NZOP2Component.o [1]
  .rodata                 const    0xe1030bec     0x14  NZOP2Component.o [1]
  .rodata                 const    0xe1030c00     0x14  NZOP2Component.o [1]
  .rodata                 const    0xe1030c14     0x14  NZOP2Component.o [1]
  .rodata                 const    0xe1030c28     0x14  NZOP2Component.o [1]
  .rodata                 const    0xe1030c3c     0x14  OFComponent.o [1]
  .rodata                 const    0xe1030c50     0x14  OFComponent.o [1]
  .rodata                 const    0xe1030c64     0x14  OFComponent.o [1]
  .rodata                 const    0xe1030c78     0x14  OFComponent.o [1]
  .rodata                 const    0xe1030c8c     0x14  OFComponent.o [1]
  .rodata                 const    0xe1030ca0     0x14  OFComponent.o [1]
  .rodata                 const    0xe1030cb4     0x14  OFComponent.o [1]
  .rodata                 const    0xe1030cc8     0x14  OFComponent.o [1]
  .rodata                 const    0xe1030cdc     0x14  OFComponent.o [1]
  .rodata                 const    0xe1030cf0     0x14  OFComponent.o [1]
  .rodata                 const    0xe1030d04     0x14  OFComponent.o [1]
  .rodata                 const    0xe1030d18     0x14  OFComponent.o [1]
  .rodata                 const    0xe1030d2c     0x14  OFComponent.o [1]
  .rodata                 const    0xe1030d40     0x14  OFComponent.o [1]
  .rodata                 const    0xe1030d54     0x14  OFComponent.o [1]
  .rodata                 const    0xe1030d68     0x14  OFComponent.o [1]
  .rodata                 const    0xe1030d7c     0x14  OFComponent.o [1]
  .rodata                 const    0xe1030d90     0x14  OFComponent.o [1]
  .rodata                 const    0xe1030da4     0x14  OFComponent.o [1]
  .rodata                 const    0xe1030db8     0x14  OFComponent.o [1]
  .rodata                 const    0xe1030dcc     0x14  OFComponent.o [1]
  .rodata                 const    0xe1030de0     0x14  OFComponent.o [1]
  .rodata                 const    0xe1030df4     0x14  OFComponent.o [1]
  .rodata                 const    0xe1030e08     0x14  OFComponent.o [1]
  .rodata                 const    0xe1030e1c     0x14  OFComponent.o [1]
  .rodata                 const    0xe1030e30     0x14  OFComponent.o [1]
  .rodata                 const    0xe1030e44     0x14  OFComponent.o [1]
  .rodata                 const    0xe1030e58     0x14  OFComponent.o [1]
  .rodata                 const    0xe1030e6c     0x14  OFComponent.o [1]
  .rodata                 const    0xe1030e80     0x14  OFComponent.o [1]
  .rodata                 const    0xe1030e94     0x14  OFComponent.o [1]
  .rodata                 const    0xe1030ea8     0x14  PRM1Component.o [1]
  .rodata                 const    0xe1030ebc     0x14  ResetSystemMenu.o [1]
  .rodata                 const    0xe1030ed0     0x14  ttbl.o [1]
  .rodata                 const    0xe1030ee4     0x14  TZNP1Component.o [1]
  .rodata                 const    0xe1030ef8     0x14  TZNP1Component.o [1]
  .rodata                 const    0xe1030f0c     0x14  TZNP1Component.o [1]
  .rodata                 const    0xe1030f20     0x14  TZNP1Component.o [1]
  .rodata                 const    0xe1030f34     0x14  TZNP1Component.o [1]
  .rodata                 const    0xe1030f48     0x14  TZNP1Component.o [1]
  .rodata                 const    0xe1030f5c     0x14  TZNP2Component.o [1]
  .rodata                 const    0xe1030f70     0x14  TZNP2Component.o [1]
  .rodata                 const    0xe1030f84     0x14  TZNP2Component.o [1]
  .rodata                 const    0xe1030f98     0x14  TZNP2Component.o [1]
  .rodata                 const    0xe1030fac     0x14  TZNP2Component.o [1]
  .rodata                 const    0xe1030fc0     0x14  TZNP2Component.o [1]
  .rodata                 const    0xe1030fd4     0x14  TZNP3Component.o [1]
  .rodata                 const    0xe1030fe8     0x14  TZNP3Component.o [1]
  .rodata                 const    0xe1030ffc     0x14  TZNP3Component.o [1]
  .rodata                 const    0xe1031010     0x14  TZNP3Component.o [1]
  .rodata                 const    0xe1031024     0x14  TZNP3Component.o [1]
  .rodata                 const    0xe1031038     0x14  TZNP3Component.o [1]
  .rodata                 const    0xe103104c     0x14  TZNP4Component.o [1]
  .rodata                 const    0xe1031060     0x14  TZNP4Component.o [1]
  .rodata                 const    0xe1031074     0x14  TZNP4Component.o [1]
  .rodata                 const    0xe1031088     0x14  TZNP4Component.o [1]
  .rodata                 const    0xe103109c     0x14  TZNP4Component.o [1]
  .rodata                 const    0xe10310b0     0x14  TZNP4Component.o [1]
  .rodata                 const    0xe10310c4     0x14  TZNP5Component.o [1]
  .rodata                 const    0xe10310d8     0x14  TZNP5Component.o [1]
  .rodata                 const    0xe10310ec     0x14  TZNP5Component.o [1]
  .rodata                 const    0xe1031100     0x14  TZNP5Component.o [1]
  .rodata                 const    0xe1031114     0x14  TZNP5Component.o [1]
  .rodata                 const    0xe1031128     0x14  TZNP5Component.o [1]
  .rodata                 const    0xe103113c     0x14  ViewMenuWideLog.o [1]
  .text                   ro code  0xe1031150     0x14  fpinit.o [4]
  .text                   ro code  0xe1031164     0x14  xsprout.o [3]
  .rodata                 const    0xe1031178     0x10  APVComponent.o [1]
  .rodata                 const    0xe1031188     0x10  APVComponent.o [1]
  .rodata                 const    0xe1031198     0x10  APVComponent.o [1]
  .rodata                 const    0xe10311a8     0x10  APVComponent.o [1]
  .rodata                 const    0xe10311b8     0x10  APVComponent.o [1]
  .rodata                 const    0xe10311c8     0x10  APVComponent.o [1]
  .rodata                 const    0xe10311d8     0x10  APVComponent.o [1]
  .rodata                 const    0xe10311e8     0x10  DZ1Component.o [1]
  .rodata                 const    0xe10311f8     0x10  DZ1Component.o [1]
  .rodata                 const    0xe1031208     0x10  DZ1Component.o [1]
  .rodata                 const    0xe1031218     0x10  DZ1Component.o [1]
  .rodata                 const    0xe1031228     0x10  DZ1Component.o [1]
  .rodata                 const    0xe1031238     0x10  DZ1Component.o [1]
  .rodata                 const    0xe1031248     0x10  DZ2Component.o [1]
  .rodata                 const    0xe1031258     0x10  DZ2Component.o [1]
  .rodata                 const    0xe1031268     0x10  DZ2Component.o [1]
  .rodata                 const    0xe1031278     0x10  DZ2Component.o [1]
  .rodata                 const    0xe1031288     0x10  DZ2Component.o [1]
  .rodata                 const    0xe1031298     0x10  DZ2Component.o [1]
  .rodata                 const    0xe10312a8     0x10  DZ2Component.o [1]
  .rodata                 const    0xe10312b8     0x10  DZ3Component.o [1]
  .rodata                 const    0xe10312c8     0x10  DZ3Component.o [1]
  .rodata                 const    0xe10312d8     0x10  DZ3Component.o [1]
  .rodata                 const    0xe10312e8     0x10  DZ3Component.o [1]
  .rodata                 const    0xe10312f8     0x10  DZ3Component.o [1]
  .rodata                 const    0xe1031308     0x10  DZ3Component.o [1]
  .rodata                 const    0xe1031318     0x10  DZ3Component.o [1]
  .rodata                 const    0xe1031328     0x10  DZ3Component.o [1]
  .rodata                 const    0xe1031338     0x10  DZ3Component.o [1]
  .rodata                 const    0xe1031348     0x10  DZ3Component.o [1]
  .rodata                 const    0xe1031358     0x10  DZ3Component.o [1]
  .rodata                 const    0xe1031368     0x10  DZ4Component.o [1]
  .rodata                 const    0xe1031378     0x10  DZ4Component.o [1]
  .rodata                 const    0xe1031388     0x10  DZ4Component.o [1]
  .rodata                 const    0xe1031398     0x10  DZ4Component.o [1]
  .rodata                 const    0xe10313a8     0x10  DZ4Component.o [1]
  .rodata                 const    0xe10313b8     0x10  DZ4Component.o [1]
  .rodata                 const    0xe10313c8     0x10  DZ4Component.o [1]
  .rodata                 const    0xe10313d8     0x10  DZ4Component.o [1]
  .rodata                 const    0xe10313e8     0x10  DZ4Component.o [1]
  .rodata                 const    0xe10313f8     0x10  DZ4Component.o [1]
  .rodata                 const    0xe1031408     0x10  DZ4Component.o [1]
  .rodata                 const    0xe1031418     0x10  DZ4Component.o [1]
  .rodata                 const    0xe1031428     0x10  DZ4Component.o [1]
  .rodata                 const    0xe1031438     0x10  DZ4Component.o [1]
  .rodata                 const    0xe1031448     0x10  DZ4Component.o [1]
  .rodata                 const    0xe1031458     0x10  DZ5Component.o [1]
  .rodata                 const    0xe1031468     0x10  DZ5Component.o [1]
  .rodata                 const    0xe1031478     0x10  DZ5Component.o [1]
  .rodata                 const    0xe1031488     0x10  DZ5Component.o [1]
  .rodata                 const    0xe1031498     0x10  DZ5Component.o [1]
  .rodata                 const    0xe10314a8     0x10  DZ5Component.o [1]
  .rodata                 const    0xe10314b8     0x10  DZ5Component.o [1]
  .rodata                 const    0xe10314c8     0x10  DZ5Component.o [1]
  .rodata                 const    0xe10314d8     0x10  DZ5Component.o [1]
  .rodata                 const    0xe10314e8     0x10  DZ5Component.o [1]
  .rodata                 const    0xe10314f8     0x10  DZ5Component.o [1]
  .rodata                 const    0xe1031508     0x10  DZ5Component.o [1]
  .rodata                 const    0xe1031518     0x10  DZ5Component.o [1]
  .rodata                 const    0xe1031528     0x10  DZ5Component.o [1]
  .rodata                 const    0xe1031538     0x10  DZ5Component.o [1]
  .rodata                 const    0xe1031548     0x10  MTZ1Component.o [1]
  .rodata                 const    0xe1031558     0x10  MTZ1Component.o [1]
  .rodata                 const    0xe1031568     0x10  MTZ1Component.o [1]
  .rodata                 const    0xe1031578     0x10  MTZ1Component.o [1]
  .rodata                 const    0xe1031588     0x10  MTZ1Component.o [1]
  .rodata                 const    0xe1031598     0x10  MTZ1Component.o [1]
  .rodata                 const    0xe10315a8     0x10  MTZ1Component.o [1]
  .rodata                 const    0xe10315b8     0x10  MTZ1Component.o [1]
  .rodata                 const    0xe10315c8     0x10  MTZ1Component.o [1]
  .rodata                 const    0xe10315d8     0x10  MTZ1Component.o [1]
  .rodata                 const    0xe10315e8     0x10  MTZ1Component.o [1]
  .rodata                 const    0xe10315f8     0x10  MTZ1Component.o [1]
  .rodata                 const    0xe1031608     0x10  MTZ1Component.o [1]
  .rodata                 const    0xe1031618     0x10  MTZ2Component.o [1]
  .rodata                 const    0xe1031628     0x10  MTZ2Component.o [1]
  .rodata                 const    0xe1031638     0x10  MTZ2Component.o [1]
  .rodata                 const    0xe1031648     0x10  MTZ2Component.o [1]
  .rodata                 const    0xe1031658     0x10  MTZ2Component.o [1]
  .rodata                 const    0xe1031668     0x10  MTZ2Component.o [1]
  .rodata                 const    0xe1031678     0x10  MTZ2Component.o [1]
  .rodata                 const    0xe1031688     0x10  MTZ2Component.o [1]
  .rodata                 const    0xe1031698     0x10  MTZ2Component.o [1]
  .rodata                 const    0xe10316a8     0x10  MTZ2Component.o [1]
  .rodata                 const    0xe10316b8     0x10  MTZ2Component.o [1]
  .rodata                 const    0xe10316c8     0x10  MTZ2Component.o [1]
  .rodata                 const    0xe10316d8     0x10  MTZ2Component.o [1]
  .rodata                 const    0xe10316e8     0x10  MTZ2Component.o [1]
  .rodata                 const    0xe10316f8     0x10  MTZ3Component.o [1]
  .rodata                 const    0xe1031708     0x10  MTZ3Component.o [1]
  .rodata                 const    0xe1031718     0x10  MTZ3Component.o [1]
  .rodata                 const    0xe1031728     0x10  MTZ3Component.o [1]
  .rodata                 const    0xe1031738     0x10  MTZ3Component.o [1]
  .rodata                 const    0xe1031748     0x10  MTZ3Component.o [1]
  .rodata                 const    0xe1031758     0x10  MTZ3Component.o [1]
  .rodata                 const    0xe1031768     0x10  MTZ3Component.o [1]
  .rodata                 const    0xe1031778     0x10  MTZ3Component.o [1]
  .rodata                 const    0xe1031788     0x10  MTZ3Component.o [1]
  .rodata                 const    0xe1031798     0x10  MTZ3Component.o [1]
  .rodata                 const    0xe10317a8     0x10  MTZ3Component.o [1]
  .rodata                 const    0xe10317b8     0x10  MTZ3Component.o [1]
  .rodata                 const    0xe10317c8     0x10  MTZ3Component.o [1]
  .rodata                 const    0xe10317d8     0x10  MTZ3Component.o [1]
  .rodata                 const    0xe10317e8     0x10  MTZ3Component.o [1]
  .rodata                 const    0xe10317f8     0x10  MTZ4Component.o [1]
  .rodata                 const    0xe1031808     0x10  MTZ4Component.o [1]
  .rodata                 const    0xe1031818     0x10  MTZ4Component.o [1]
  .rodata                 const    0xe1031828     0x10  MTZ4Component.o [1]
  .rodata                 const    0xe1031838     0x10  MTZ4Component.o [1]
  .rodata                 const    0xe1031848     0x10  MTZ4Component.o [1]
  .rodata                 const    0xe1031858     0x10  MTZ4Component.o [1]
  .rodata                 const    0xe1031868     0x10  MTZ4Component.o [1]
  .rodata                 const    0xe1031878     0x10  MTZ4Component.o [1]
  .rodata                 const    0xe1031888     0x10  MTZ4Component.o [1]
  .rodata                 const    0xe1031898     0x10  MTZ4Component.o [1]
  .rodata                 const    0xe10318a8     0x10  MTZ4Component.o [1]
  .rodata                 const    0xe10318b8     0x10  MTZ4Component.o [1]
  .rodata                 const    0xe10318c8     0x10  MTZ4Component.o [1]
  .rodata                 const    0xe10318d8     0x10  MTZ4Component.o [1]
  .rodata                 const    0xe10318e8     0x10  MTZ4Component.o [1]
  .rodata                 const    0xe10318f8     0x10  MTZ5Component.o [1]
  .rodata                 const    0xe1031908     0x10  MTZ5Component.o [1]
  .rodata                 const    0xe1031918     0x10  MTZ5Component.o [1]
  .rodata                 const    0xe1031928     0x10  MTZ5Component.o [1]
  .rodata                 const    0xe1031938     0x10  MTZ5Component.o [1]
  .rodata                 const    0xe1031948     0x10  MTZ5Component.o [1]
  .rodata                 const    0xe1031958     0x10  MTZ5Component.o [1]
  .rodata                 const    0xe1031968     0x10  MTZ5Component.o [1]
  .rodata                 const    0xe1031978     0x10  MTZ5Component.o [1]
  .rodata                 const    0xe1031988     0x10  MTZ5Component.o [1]
  .rodata                 const    0xe1031998     0x10  MTZ5Component.o [1]
  .rodata                 const    0xe10319a8     0x10  MTZ5Component.o [1]
  .rodata                 const    0xe10319b8     0x10  MTZ5Component.o [1]
  .rodata                 const    0xe10319c8     0x10  MTZ5Component.o [1]
  .rodata                 const    0xe10319d8     0x10  MTZ5Component.o [1]
  .rodata                 const    0xe10319e8     0x10  MTZ5Component.o [1]
  .rodata                 const    0xe10319f8     0x10  NZOP1Component.o [1]
  .rodata                 const    0xe1031a08     0x10  NZOP1Component.o [1]
  .rodata                 const    0xe1031a18     0x10  NZOP1Component.o [1]
  .rodata                 const    0xe1031a28     0x10  NZOP1Component.o [1]
  .rodata                 const    0xe1031a38     0x10  NZOP1Component.o [1]
  .rodata                 const    0xe1031a48     0x10  NZOP1Component.o [1]
  .rodata                 const    0xe1031a58     0x10  NZOP1Component.o [1]
  .rodata                 const    0xe1031a68     0x10  NZOP1Component.o [1]
  .rodata                 const    0xe1031a78     0x10  NZOP1Component.o [1]
  .rodata                 const    0xe1031a88     0x10  NZOP2Component.o [1]
  .rodata                 const    0xe1031a98     0x10  NZOP2Component.o [1]
  .rodata                 const    0xe1031aa8     0x10  NZOP2Component.o [1]
  .rodata                 const    0xe1031ab8     0x10  NZOP2Component.o [1]
  .rodata                 const    0xe1031ac8     0x10  NZOP2Component.o [1]
  .rodata                 const    0xe1031ad8     0x10  NZOP2Component.o [1]
  .rodata                 const    0xe1031ae8     0x10  NZOP2Component.o [1]
  .rodata                 const    0xe1031af8     0x10  NZOP2Component.o [1]
  .rodata                 const    0xe1031b08     0x10  OFComponent.o [1]
  .rodata                 const    0xe1031b18     0x10  OFComponent.o [1]
  .rodata                 const    0xe1031b28     0x10  OFComponent.o [1]
  .rodata                 const    0xe1031b38     0x10  OFComponent.o [1]
  .rodata                 const    0xe1031b48     0x10  OFComponent.o [1]
  .rodata                 const    0xe1031b58     0x10  OFComponent.o [1]
  .rodata                 const    0xe1031b68     0x10  OFComponent.o [1]
  .rodata                 const    0xe1031b78     0x10  OFComponent.o [1]
  .rodata                 const    0xe1031b88     0x10  OFComponent.o [1]
  .rodata                 const    0xe1031b98     0x10  OFComponent.o [1]
  .rodata                 const    0xe1031ba8     0x10  OFComponent.o [1]
  .rodata                 const    0xe1031bb8     0x10  OFComponent.o [1]
  .rodata                 const    0xe1031bc8     0x10  OFComponent.o [1]
  .rodata                 const    0xe1031bd8     0x10  OFComponent.o [1]
  .rodata                 const    0xe1031be8     0x10  OFComponent.o [1]
  .rodata                 const    0xe1031bf8     0x10  OFComponent.o [1]
  .rodata                 const    0xe1031c08     0x10  OFComponent.o [1]
  .rodata                 const    0xe1031c18     0x10  OFComponent.o [1]
  .rodata                 const    0xe1031c28     0x10  OFComponent.o [1]
  .rodata                 const    0xe1031c38     0x10  OFComponent.o [1]
  .rodata                 const    0xe1031c48     0x10  OFComponent.o [1]
  .rodata                 const    0xe1031c58     0x10  OFComponent.o [1]
  .rodata                 const    0xe1031c68     0x10  OFComponent.o [1]
  .rodata                 const    0xe1031c78     0x10  OFComponent.o [1]
  .rodata                 const    0xe1031c88     0x10  OFComponent.o [1]
  .rodata                 const    0xe1031c98     0x10  OFComponent.o [1]
  .rodata                 const    0xe1031ca8     0x10  OFComponent.o [1]
  .rodata                 const    0xe1031cb8     0x10  PRM1Component.o [1]
  .rodata                 const    0xe1031cc8     0x10  PRM1Component.o [1]
  .rodata                 const    0xe1031cd8     0x10  PRM1Component.o [1]
  .rodata                 const    0xe1031ce8     0x10  PRM1Component.o [1]
  .rodata                 const    0xe1031cf8     0x10  PRM1Component.o [1]
  .rodata                 const    0xe1031d08     0x10  PRM1Component.o [1]
  .rodata                 const    0xe1031d18     0x10  ResetSystemMenu.o [1]
  .rodata                 const    0xe1031d28     0x10  ResetSystemMenu.o [1]
  .rodata                 const    0xe1031d38     0x10  ResetSystemMenu.o [1]
  .rodata                 const    0xe1031d48     0x10  ResetSystemMenu.o [1]
  .rodata                 const    0xe1031d58     0x10  ResetSystemMenu.o [1]
  .rodata                 const    0xe1031d68     0x10  systemMenu.o [1]
  .rodata                 const    0xe1031d78     0x10  systemMenu.o [1]
  .rodata                 const    0xe1031d88     0x10  TZNP1Component.o [1]
  .rodata                 const    0xe1031d98     0x10  TZNP1Component.o [1]
  .rodata                 const    0xe1031da8     0x10  TZNP1Component.o [1]
  .rodata                 const    0xe1031db8     0x10  TZNP1Component.o [1]
  .rodata                 const    0xe1031dc8     0x10  TZNP1Component.o [1]
  .rodata                 const    0xe1031dd8     0x10  TZNP1Component.o [1]
  .rodata                 const    0xe1031de8     0x10  TZNP1Component.o [1]
  .rodata                 const    0xe1031df8     0x10  TZNP1Component.o [1]
  .rodata                 const    0xe1031e08     0x10  TZNP1Component.o [1]
  .rodata                 const    0xe1031e18     0x10  TZNP1Component.o [1]
  .rodata                 const    0xe1031e28     0x10  TZNP1Component.o [1]
  .rodata                 const    0xe1031e38     0x10  TZNP1Component.o [1]
  .rodata                 const    0xe1031e48     0x10  TZNP1Component.o [1]
  .rodata                 const    0xe1031e58     0x10  TZNP1Component.o [1]
  .rodata                 const    0xe1031e68     0x10  TZNP1Component.o [1]
  .rodata                 const    0xe1031e78     0x10  TZNP1Component.o [1]
  .rodata                 const    0xe1031e88     0x10  TZNP2Component.o [1]
  .rodata                 const    0xe1031e98     0x10  TZNP2Component.o [1]
  .rodata                 const    0xe1031ea8     0x10  TZNP2Component.o [1]
  .rodata                 const    0xe1031eb8     0x10  TZNP2Component.o [1]
  .rodata                 const    0xe1031ec8     0x10  TZNP2Component.o [1]
  .rodata                 const    0xe1031ed8     0x10  TZNP2Component.o [1]
  .rodata                 const    0xe1031ee8     0x10  TZNP2Component.o [1]
  .rodata                 const    0xe1031ef8     0x10  TZNP2Component.o [1]
  .rodata                 const    0xe1031f08     0x10  TZNP2Component.o [1]
  .rodata                 const    0xe1031f18     0x10  TZNP2Component.o [1]
  .rodata                 const    0xe1031f28     0x10  TZNP2Component.o [1]
  .rodata                 const    0xe1031f38     0x10  TZNP2Component.o [1]
  .rodata                 const    0xe1031f48     0x10  TZNP2Component.o [1]
  .rodata                 const    0xe1031f58     0x10  TZNP2Component.o [1]
  .rodata                 const    0xe1031f68     0x10  TZNP2Component.o [1]
  .rodata                 const    0xe1031f78     0x10  TZNP2Component.o [1]
  .rodata                 const    0xe1031f88     0x10  TZNP3Component.o [1]
  .rodata                 const    0xe1031f98     0x10  TZNP3Component.o [1]
  .rodata                 const    0xe1031fa8     0x10  TZNP3Component.o [1]
  .rodata                 const    0xe1031fb8     0x10  TZNP3Component.o [1]
  .rodata                 const    0xe1031fc8     0x10  TZNP3Component.o [1]
  .rodata                 const    0xe1031fd8     0x10  TZNP3Component.o [1]
  .rodata                 const    0xe1031fe8     0x10  TZNP3Component.o [1]
  .rodata                 const    0xe1031ff8     0x10  TZNP3Component.o [1]
  .rodata                 const    0xe1032008     0x10  TZNP3Component.o [1]
  .rodata                 const    0xe1032018     0x10  TZNP3Component.o [1]
  .rodata                 const    0xe1032028     0x10  TZNP3Component.o [1]
  .rodata                 const    0xe1032038     0x10  TZNP3Component.o [1]
  .rodata                 const    0xe1032048     0x10  TZNP3Component.o [1]
  .rodata                 const    0xe1032058     0x10  TZNP3Component.o [1]
  .rodata                 const    0xe1032068     0x10  TZNP3Component.o [1]
  .rodata                 const    0xe1032078     0x10  TZNP3Component.o [1]
  .rodata                 const    0xe1032088     0x10  TZNP4Component.o [1]
  .rodata                 const    0xe1032098     0x10  TZNP4Component.o [1]
  .rodata                 const    0xe10320a8     0x10  TZNP4Component.o [1]
  .rodata                 const    0xe10320b8     0x10  TZNP4Component.o [1]
  .rodata                 const    0xe10320c8     0x10  TZNP4Component.o [1]
  .rodata                 const    0xe10320d8     0x10  TZNP4Component.o [1]
  .rodata                 const    0xe10320e8     0x10  TZNP4Component.o [1]
  .rodata                 const    0xe10320f8     0x10  TZNP4Component.o [1]
  .rodata                 const    0xe1032108     0x10  TZNP4Component.o [1]
  .rodata                 const    0xe1032118     0x10  TZNP4Component.o [1]
  .rodata                 const    0xe1032128     0x10  TZNP4Component.o [1]
  .rodata                 const    0xe1032138     0x10  TZNP4Component.o [1]
  .rodata                 const    0xe1032148     0x10  TZNP4Component.o [1]
  .rodata                 const    0xe1032158     0x10  TZNP4Component.o [1]
  .rodata                 const    0xe1032168     0x10  TZNP4Component.o [1]
  .rodata                 const    0xe1032178     0x10  TZNP4Component.o [1]
  .rodata                 const    0xe1032188     0x10  TZNP5Component.o [1]
  .rodata                 const    0xe1032198     0x10  TZNP5Component.o [1]
  .rodata                 const    0xe10321a8     0x10  TZNP5Component.o [1]
  .rodata                 const    0xe10321b8     0x10  TZNP5Component.o [1]
  .rodata                 const    0xe10321c8     0x10  TZNP5Component.o [1]
  .rodata                 const    0xe10321d8     0x10  TZNP5Component.o [1]
  .rodata                 const    0xe10321e8     0x10  TZNP5Component.o [1]
  .rodata                 const    0xe10321f8     0x10  TZNP5Component.o [1]
  .rodata                 const    0xe1032208     0x10  TZNP5Component.o [1]
  .rodata                 const    0xe1032218     0x10  TZNP5Component.o [1]
  .rodata                 const    0xe1032228     0x10  TZNP5Component.o [1]
  .rodata                 const    0xe1032238     0x10  TZNP5Component.o [1]
  .rodata                 const    0xe1032248     0x10  TZNP5Component.o [1]
  .rodata                 const    0xe1032258     0x10  TZNP5Component.o [1]
  .rodata                 const    0xe1032268     0x10  TZNP5Component.o [1]
  .rodata                 const    0xe1032278     0x10  TZNP5Component.o [1]
  .rodata                 const    0xe1032288     0x10  UMMComponent.o [1]
  .rodata                 const    0xe1032298     0x10  UMMComponent.o [1]
  .rodata                 const    0xe10322a8     0x10  UMMComponent.o [1]
  .rodata                 const    0xe10322b8     0x10  UMMComponent.o [1]
  .rodata                 const    0xe10322c8     0x10  UMMComponent.o [1]
  .rodata                 const    0xe10322d8     0x10  UMMComponent.o [1]
  .rodata                 const    0xe10322e8     0x10  UMMComponent.o [1]
  .rodata                 const    0xe10322f8     0x10  UMMComponent.o [1]
  .rodata                 const    0xe1032308     0x10  UMMComponent.o [1]
  .rodata                 const    0xe1032318     0x10  UMMComponent.o [1]
  .rodata                 const    0xe1032328     0x10  UMMComponent.o [1]
  .rodata                 const    0xe1032338     0x10  UROVComponent.o [1]
  .rodata                 const    0xe1032348     0x10  UROVComponent.o [1]
  .rodata                 const    0xe1032358     0x10  UROVComponent.o [1]
  .rodata                 const    0xe1032368     0x10  UROVComponent.o [1]
  .rodata                 const    0xe1032378     0x10  UROVComponent.o [1]
  .rodata                 const    0xe1032388     0x10  UROVComponent.o [1]
  .rodata                 const    0xe1032398     0x10  UROVComponent.o [1]
  .rodata                 const    0xe10323a8     0x10  ViewMenuWideLog.o [1]
  .rodata                 const    0xe10323b8     0x10  ViewRepozitWL.o [1]
  .rodata                 const    0xe10323c8     0x10  WLComponent.o [1]
  .rodata                 const    0xe10323d8     0x10  WLComponent.o [1]
  .rodata                 const    0xe10323e8     0x10  WLComponent.o [1]
  .rodata                 const    0xe10323f8     0x10  WLComponent.o [1]
  .rodata                 const    0xe1032408     0x10  WLComponent.o [1]
  .rodata                 const    0xe1032418      0xc  AppCn.o [1]
  .rodata                 const    0xe1032424      0xc  AppCn.o [1]
  .rodata                 const    0xe1032430      0xc  APVComponent.o [1]
  .rodata                 const    0xe103243c      0xc  APVComponent.o [1]
  .rodata                 const    0xe1032448      0xc  APVComponent.o [1]
  .rodata                 const    0xe1032454      0xc  APVComponent.o [1]
  .rodata                 const    0xe1032460      0xc  APVComponent.o [1]
  .rodata                 const    0xe103246c      0xc  APVComponent.o [1]
  .rodata                 const    0xe1032478      0xc  APVComponent.o [1]
  .rodata                 const    0xe1032484      0xc  APVComponent.o [1]
  .rodata                 const    0xe1032490      0xc  APVComponent.o [1]
  .rodata                 const    0xe103249c      0xc  APVComponent.o [1]
  .rodata                 const    0xe10324a8      0xc  APVComponent.o [1]
  .rodata                 const    0xe10324b4      0xc  APVComponent.o [1]
  .rodata                 const    0xe10324c0      0xc  APVComponent.o [1]
  .rodata                 const    0xe10324cc      0xc  APVComponent.o [1]
  .rodata                 const    0xe10324d8      0xc  APVComponent.o [1]
  .rodata                 const    0xe10324e4      0xc  DZ1Component.o [1]
  .rodata                 const    0xe10324f0      0xc  DZ1Component.o [1]
  .rodata                 const    0xe10324fc      0xc  DZ1Component.o [1]
  .rodata                 const    0xe1032508      0xc  DZ1Component.o [1]
  .rodata                 const    0xe1032514      0xc  DZ2Component.o [1]
  .rodata                 const    0xe1032520      0xc  DZ2Component.o [1]
  .rodata                 const    0xe103252c      0xc  DZ3Component.o [1]
  .rodata                 const    0xe1032538      0xc  DZ3Component.o [1]
  .rodata                 const    0xe1032544      0xc  DZ3Component.o [1]
  .rodata                 const    0xe1032550      0xc  DZ3Component.o [1]
  .rodata                 const    0xe103255c      0xc  DZ3Component.o [1]
  .rodata                 const    0xe1032568      0xc  DZ4Component.o [1]
  .rodata                 const    0xe1032574      0xc  DZ4Component.o [1]
  .rodata                 const    0xe1032580      0xc  DZ4Component.o [1]
  .rodata                 const    0xe103258c      0xc  DZ4Component.o [1]
  .rodata                 const    0xe1032598      0xc  DZ4Component.o [1]
  .rodata                 const    0xe10325a4      0xc  DZ5Component.o [1]
  .rodata                 const    0xe10325b0      0xc  DZ5Component.o [1]
  .rodata                 const    0xe10325bc      0xc  DZ5Component.o [1]
  .rodata                 const    0xe10325c8      0xc  DZ5Component.o [1]
  .rodata                 const    0xe10325d4      0xc  DZ5Component.o [1]
  .rodata                 const    0xe10325e0      0xc  missionCollectionEEPROM1.o [1]
  .rodata                 const    0xe10325ec      0xc  MTZ1Component.o [1]
  .rodata                 const    0xe10325f8      0xc  MTZ1Component.o [1]
  .rodata                 const    0xe1032604      0xc  MTZ1Component.o [1]
  .rodata                 const    0xe1032610      0xc  MTZ1Component.o [1]
  .rodata                 const    0xe103261c      0xc  MTZ1Component.o [1]
  .rodata                 const    0xe1032628      0xc  MTZ1Component.o [1]
  .rodata                 const    0xe1032634      0xc  MTZ1Component.o [1]
  .rodata                 const    0xe1032640      0xc  MTZ1Component.o [1]
  .rodata                 const    0xe103264c      0xc  MTZ2Component.o [1]
  .rodata                 const    0xe1032658      0xc  MTZ2Component.o [1]
  .rodata                 const    0xe1032664      0xc  MTZ2Component.o [1]
  .rodata                 const    0xe1032670      0xc  MTZ2Component.o [1]
  .rodata                 const    0xe103267c      0xc  MTZ2Component.o [1]
  .rodata                 const    0xe1032688      0xc  MTZ2Component.o [1]
  .rodata                 const    0xe1032694      0xc  MTZ2Component.o [1]
  .rodata                 const    0xe10326a0      0xc  MTZ3Component.o [1]
  .rodata                 const    0xe10326ac      0xc  MTZ3Component.o [1]
  .rodata                 const    0xe10326b8      0xc  MTZ3Component.o [1]
  .rodata                 const    0xe10326c4      0xc  MTZ3Component.o [1]
  .rodata                 const    0xe10326d0      0xc  MTZ3Component.o [1]
  .rodata                 const    0xe10326dc      0xc  MTZ3Component.o [1]
  .rodata                 const    0xe10326e8      0xc  MTZ3Component.o [1]
  .rodata                 const    0xe10326f4      0xc  MTZ4Component.o [1]
  .rodata                 const    0xe1032700      0xc  MTZ4Component.o [1]
  .rodata                 const    0xe103270c      0xc  MTZ4Component.o [1]
  .rodata                 const    0xe1032718      0xc  MTZ4Component.o [1]
  .rodata                 const    0xe1032724      0xc  MTZ4Component.o [1]
  .rodata                 const    0xe1032730      0xc  MTZ4Component.o [1]
  .rodata                 const    0xe103273c      0xc  MTZ4Component.o [1]
  .rodata                 const    0xe1032748      0xc  MTZ5Component.o [1]
  .rodata                 const    0xe1032754      0xc  MTZ5Component.o [1]
  .rodata                 const    0xe1032760      0xc  MTZ5Component.o [1]
  .rodata                 const    0xe103276c      0xc  MTZ5Component.o [1]
  .rodata                 const    0xe1032778      0xc  MTZ5Component.o [1]
  .rodata                 const    0xe1032784      0xc  MTZ5Component.o [1]
  .rodata                 const    0xe1032790      0xc  MTZ5Component.o [1]
  .rodata                 const    0xe103279c      0xc  NZOP1Component.o [1]
  .rodata                 const    0xe10327a8      0xc  NZOP1Component.o [1]
  .rodata                 const    0xe10327b4      0xc  NZOP2Component.o [1]
  .rodata                 const    0xe10327c0      0xc  NZOP2Component.o [1]
  .rodata                 const    0xe10327cc      0xc  NZOP2Component.o [1]
  .rodata                 const    0xe10327d8      0xc  OFComponent.o [1]
  .rodata                 const    0xe10327e4      0xc  PFComponent.o [1]
  .rodata                 const    0xe10327f0      0xc  PFComponent.o [1]
  .rodata                 const    0xe10327fc      0xc  PFComponent.o [1]
  .rodata                 const    0xe1032808      0xc  PFComponent.o [1]
  .rodata                 const    0xe1032814      0xc  PFComponent.o [1]
  .rodata                 const    0xe1032820      0xc  PFComponent.o [1]
  .rodata                 const    0xe103282c      0xc  PFComponent.o [1]
  .rodata                 const    0xe1032838      0xc  PFComponent.o [1]
  .rodata                 const    0xe1032844      0xc  PFComponent.o [1]
  .rodata                 const    0xe1032850      0xc  PFComponent.o [1]
  .rodata                 const    0xe103285c      0xc  PFComponent.o [1]
  .rodata                 const    0xe1032868      0xc  PFComponent.o [1]
  .rodata                 const    0xe1032874      0xc  PFComponent.o [1]
  .rodata                 const    0xe1032880      0xc  PFComponent.o [1]
  .rodata                 const    0xe103288c      0xc  PFComponent.o [1]
  .rodata                 const    0xe1032898      0xc  PFComponent.o [1]
  .rodata                 const    0xe10328a4      0xc  PRM1Component.o [1]
  .rodata                 const    0xe10328b0      0xc  PRM1Component.o [1]
  .rodata                 const    0xe10328bc      0xc  PRM1Component.o [1]
  .rodata                 const    0xe10328c8      0xc  PRM1Component.o [1]
  .rodata                 const    0xe10328d4      0xc  PRM1Component.o [1]
  .rodata                 const    0xe10328e0      0xc  PRM1Component.o [1]
  .rodata                 const    0xe10328ec      0xc  PRM1Component.o [1]
  .rodata                 const    0xe10328f8      0xc  PRM1Component.o [1]
  .rodata                 const    0xe1032904      0xc  PRM1Component.o [1]
  .rodata                 const    0xe1032910      0xc  PRM1Component.o [1]
  .rodata                 const    0xe103291c      0xc  PRM1Component.o [1]
  .rodata                 const    0xe1032928      0xc  PRM1Component.o [1]
  .rodata                 const    0xe1032934      0xc  ResetSystemMenu.o [1]
  .rodata                 const    0xe1032940      0xc  ResetSystemMenu.o [1]
  .rodata                 const    0xe103294c      0xc  ResetSystemMenu.o [1]
  .rodata                 const    0xe1032958      0xc  ResetSystemMenu.o [1]
  .rodata                 const    0xe1032964      0xc  ResetSystemMenu.o [1]
  .rodata                 const    0xe1032970      0xc  ResetSystemMenu.o [1]
  .rodata                 const    0xe103297c      0xc  ResetSystemMenu.o [1]
  .rodata                 const    0xe1032988      0xc  ResetSystemMenu.o [1]
  .rodata                 const    0xe1032994      0xc  ResetSystemMenu.o [1]
  .rodata                 const    0xe10329a0      0xc  ResetSystemMenu.o [1]
  .rodata                 const    0xe10329ac      0xc  ResetSystemMenu.o [1]
  .rodata                 const    0xe10329b8      0xc  ResetSystemMenu.o [1]
  .rodata                 const    0xe10329c4      0xc  ResetSystemMenu.o [1]
  .rodata                 const    0xe10329d0      0xc  ResetSystemMenu.o [1]
  .rodata                 const    0xe10329dc      0xc  systemMenu.o [1]
  .rodata                 const    0xe10329e8      0xc  systemMenu.o [1]
  .rodata                 const    0xe10329f4      0xc  TZNP1Component.o [1]
  .rodata                 const    0xe1032a00      0xc  TZNP2Component.o [1]
  .rodata                 const    0xe1032a0c      0xc  TZNP3Component.o [1]
  .rodata                 const    0xe1032a18      0xc  TZNP4Component.o [1]
  .rodata                 const    0xe1032a24      0xc  TZNP5Component.o [1]
  .rodata                 const    0xe1032a30      0xc  UMMComponent.o [1]
  .rodata                 const    0xe1032a3c      0xc  UMMComponent.o [1]
  .rodata                 const    0xe1032a48      0xc  UMMComponent.o [1]
  .rodata                 const    0xe1032a54      0xc  UMMComponent.o [1]
  .rodata                 const    0xe1032a60      0xc  UMMComponent.o [1]
  .rodata                 const    0xe1032a6c      0xc  UMMComponent.o [1]
  .rodata                 const    0xe1032a78      0xc  UMMComponent.o [1]
  .rodata                 const    0xe1032a84      0xc  UMMComponent.o [1]
  .rodata                 const    0xe1032a90      0xc  UMMComponent.o [1]
  .rodata                 const    0xe1032a9c      0xc  UMMComponent.o [1]
  .rodata                 const    0xe1032aa8      0xc  UMMComponent.o [1]
  .rodata                 const    0xe1032ab4      0xc  UMMComponent.o [1]
  .rodata                 const    0xe1032ac0      0xc  UMMComponent.o [1]
  .rodata                 const    0xe1032acc      0xc  UMMComponent.o [1]
  .rodata                 const    0xe1032ad8      0xc  UMMComponent.o [1]
  .rodata                 const    0xe1032ae4      0xc  UMMComponent.o [1]
  .rodata                 const    0xe1032af0      0xc  UMMComponent.o [1]
  .rodata                 const    0xe1032afc      0xc  UROVComponent.o [1]
  .rodata                 const    0xe1032b08      0xc  UROVComponent.o [1]
  .rodata                 const    0xe1032b14      0xc  UROVComponent.o [1]
  .rodata                 const    0xe1032b20      0xc  UROVComponent.o [1]
  .rodata                 const    0xe1032b2c      0xc  ViewMenuReg.o [1]
  .rodata                 const    0xe1032b38      0xc  ViewMenuReg.o [1]
  .rodata                 const    0xe1032b44      0xc  ViewMenuWideLog.o [1]
  .rodata                 const    0xe1032b50      0xc  ViewRepozit.o [1]
  .rodata                 const    0xe1032b60      0x8  AppCn.o [1]
  .rodata                 const    0xe1032b68      0x8  AppCn.o [1]
  .rodata                 const    0xe1032b70      0x8  AppCn.o [1]
  .rodata                 const    0xe1032b78      0x8  APVComponent.o [1]
  .rodata                 const    0xe1032b80      0x8  APVComponent.o [1]
  .rodata                 const    0xe1032b88      0x8  APVComponent.o [1]
  .rodata                 const    0xe1032b90      0x8  APVComponent.o [1]
  .rodata                 const    0xe1032b98      0x8  APVComponent.o [1]
  .rodata                 const    0xe1032ba0      0x8  DZ1Component.o [1]
  .rodata                 const    0xe1032ba8      0x8  DZ3Component.o [1]
  .rodata                 const    0xe1032bb0      0x8  DZ4Component.o [1]
  .rodata                 const    0xe1032bb8      0x8  DZ5Component.o [1]
  .rodata                 const    0xe1032bc0      0x8  MTZ1Component.o [1]
  .rodata                 const    0xe1032bc8      0x8  MTZ1Component.o [1]
  .rodata                 const    0xe1032bd0      0x8  MTZPacket.o [1]
  .rodata                 const    0xe1032bd8      0x8  NZOP1Component.o [1]
  .rodata                 const    0xe1032be0      0x8  NZOPPacket.o [1]
  .rodata                 const    0xe1032be8      0x8  NZOPPacket.o [1]
  .rodata                 const    0xe1032bf0      0x8  OFComponent.o [1]
  .rodata                 const    0xe1032bf8      0x8  PRM1Component.o [1]
  .rodata                 const    0xe1032c00      0x8  PRM1Component.o [1]
  .rodata                 const    0xe1032c08      0x8  ResetSystemMenu.o [1]
  .rodata                 const    0xe1032c10      0x8  ResetSystemMenu.o [1]
  .rodata                 const    0xe1032c18      0x8  ResetSystemMenu.o [1]
  .rodata                 const    0xe1032c20      0x8  ResetSystemMenu.o [1]
  .rodata                 const    0xe1032c28      0x8  ResetSystemMenu.o [1]
  .rodata                 const    0xe1032c30      0x8  ResetSystemMenu.o [1]
  .rodata                 const    0xe1032c38      0x8  ResetSystemMenu.o [1]
  .rodata                 const    0xe1032c40      0x8  ResetSystemMenu.o [1]
  .rodata                 const    0xe1032c48      0x8  ResetSystemMenu.o [1]
  .rodata                 const    0xe1032c50      0x8  ResetSystemMenu.o [1]
  .rodata                 const    0xe1032c58      0x8  ResetSystemMenu.o [1]
  .rodata                 const    0xe1032c60      0x8  ResetSystemMenu.o [1]
  .rodata                 const    0xe1032c68      0x8  ResetSystemMenu.o [1]
  .rodata                 const    0xe1032c70      0x8  systemMenu.o [1]
  .rodata                 const    0xe1032c78      0x8  systemMenu.o [1]
  .rodata                 const    0xe1032c80      0x8  systemMenu.o [1]
  .rodata                 const    0xe1032c88      0x8  TZNP1Component.o [1]
  .rodata                 const    0xe1032c90      0x8  TZNPPacket.o [1]
  .rodata                 const    0xe1032c98      0x8  TZNPPacket.o [1]
  .rodata                 const    0xe1032ca0      0x8  UMMComponent.o [1]
  .rodata                 const    0xe1032ca8      0x8  UROVComponent.o [1]
  .rodata                 const    0xe1032cb0      0x8  ViewMenuRang.o [1]
  .rodata                 const    0xe1032cb8      0x8  ViewMenuRang.o [1]
  .rodata                 const    0xe1032cc0      0x8  ViewMenuReg.o [1]
  .rodata                 const    0xe1032cc8      0x8  ViewMenuWideLog.o [1]
  .rodata                 const    0xe1032cd0      0x8  WLComponent.o [1]
  .text                   ro code  0xe1032cd8      0x8  ABImemclr4.o [5]
  .rodata                 const    0xe1032ce0      0x4  DZPacket.o [1]
  .rodata                 const    0xe1032ce4      0x4  lpcAV1_timer_driver.o [1]
  .rodata                 const    0xe1032ce8      0x4  MTZPacket.o [1]
  .rodata                 const    0xe1032cec      0x4  WLComponent.o [1]
  .rodata                 const    0xe1032cf0      0x0  zero_init3.o [5]
  .rodata                 const    0xe1032cf0      0x0  lz77_init.o [5]
  P1 s0                            0xe1032cf0  0x122a0  <Init block>
    Fast_function         inited   0xe1032cf0   0x62b4  toSpeedOptim.o [1]
    Fast_function         inited   0xe1038fa4   0x19bc  logicDZ2to5.o [1]
    Fast_function         inited   0xe103a960    0xabc  toSpeedZonaVRT.o [1]
    Fast_function         inited   0xe103b41c    0x17c  FLogTimer.o [1]
    Fast_function         inited   0xe103b598    0x428  logictimers.o [1]
    Fast_function         inited   0xe103b9c0    0x184  ILogTimer.o [1]
    Fast_function         inited   0xe103bb44   0x131c  toSpeedDIS.o [1]
    Fast_function         inited   0xe103ce60     0xd4  FLogTimerRES.o [1]
    Fast_function         inited   0xe103cf34   0x119c  CTpu.o [1]
    Fast_function         inited   0xe103e0d0    0xefc  logicAPV.o [1]
    Fast_function         inited   0xe103efcc     0xd8  ILogTimerRES.o [1]
    Fast_function         inited   0xe103f0a4    0xd4c  AppCn.o [1]
    Fast_function         inited   0xe103fdf0    0xb28  lpu.o [1]
    Fast_function         inited   0xe1040918    0x338  ssp1L.o [1]
    Fast_function         inited   0xe1040c50    0xd04  logicOF.o [1]
    Fast_function         inited   0xe1041954    0xb50  logicMTZ2to5.o [1]
    Fast_function         inited   0xe10424a4    0x760  logicMTZ1.o [1]
    Fast_function         inited   0xe1042c04    0x658  logicTZNP1to5.o [1]
    Fast_function         inited   0xe104325c    0x5e8  translateI.o [1]
    Fast_function         inited   0xe1043844    0x4e0  hu2l.o [1]
    Fast_function         inited   0xe1043d24     0x88  lpcAV1_hsuart_driver.o [1]
    Fast_function         inited   0xe1043dac    0x4a0  logicDZ1.o [1]
    Fast_function         inited   0xe104424c    0x3a4  ici_api.o [1]
    Fast_function         inited   0xe10445f0    0x26c  logicNZOP1to2.o [1]
    Fast_function         inited   0xe104485c    0x1f4  getINTERFACE.o [1]
    Fast_function         inited   0xe1044a50    0x1d8  logicUROV.o [1]
    Fast_function         inited   0xe1044c28    0x138  hu7l.o [1]
    Fast_function         inited   0xe1044d60    0x12c  logicPRM1.o [1]
    Fast_function         inited   0xe1044e8c     0xec  cy7.o [1]
    Fast_function         inited   0xe1044f78     0x14  logicWL.o [1]
    Fast_function         inited   0xe1044f8c      0x4  logicPF.o [1]
  Initializer bytes       const    0xe1044f90   0x1007  <for P3 s1>
  Initializer bytes       const    0xe1045f97   0x7fd5  <for P1 s0>
  Initializer bytes       const    0xe104df6c    0x369  <for P2 s2>
                                 - 0xe104e2d5  0x4e1d5

"P2":                                            0x5a8
  P2 s2                            0xe107f000    0x5a8  <Init block>
    Fast_function_no_cache
                          inited   0xe107f000    0x5a8  ssp1L.o [1]
                                 - 0xe107f5a8    0x5a8

"P3":                                          0x2f338
  P3 s1                            0xe1080000   0x5c60  <Init block>
    .data                 inited   0xe1080000   0x2328  AppCn.o [1]
    .data                 inited   0xe1082328    0x27c  ResetSystemMenu.o [1]
    .data                 inited   0xe10825a4    0x27c  ViewRepozit.o [1]
    .data                 inited   0xe1082820    0x210  ViewRepozit.o [1]
    .data                 inited   0xe1082a30    0x1c0  OFComponent.o [1]
    .data                 inited   0xe1082bf0    0x104  CTpu.o [1]
    .data                 inited   0xe1082cf4    0x100  CTpu.o [1]
    .data                 inited   0xe1082df4     0xe8  CTpu.o [1]
    .data                 inited   0xe1082edc     0x9c  ResetSystemMenu.o [1]
    .data                 inited   0xe1082f78     0x9c  ResetSystemMenu.o [1]
    .data                 inited   0xe1083014     0x9c  ViewRepozitWL.o [1]
    .data                 inited   0xe10830b0     0x84  CTpu.o [1]
    .data                 inited   0xe1083134     0x84  MTZ3Component.o [1]
    .data                 inited   0xe10831b8     0x84  MTZ4Component.o [1]
    .data                 inited   0xe108323c     0x84  MTZ5Component.o [1]
    .data                 inited   0xe10832c0     0x84  ViewRepozitWL.o [1]
    .data                 inited   0xe1083344     0x80  PFComponent.o [1]
    .data                 inited   0xe10833c4     0x78  APVComponent.o [1]
    .data                 inited   0xe108343c     0x78  CTpu.o [1]
    .data                 inited   0xe10834b4     0x78  MTZ2Component.o [1]
    .data                 inited   0xe108352c     0x78  TZNP1Component.o [1]
    .data                 inited   0xe10835a4     0x78  TZNP2Component.o [1]
    .data                 inited   0xe108361c     0x78  TZNP3Component.o [1]
    .data                 inited   0xe1083694     0x78  TZNP4Component.o [1]
    .data                 inited   0xe108370c     0x78  TZNP5Component.o [1]
    .data                 inited   0xe1083784     0x70  UMMComponent.o [1]
    .data                 inited   0xe10837f4     0x6c  DZPacket.o [1]
    .data                 inited   0xe1083860     0x6c  MTZPacket.o [1]
    .data                 inited   0xe10838cc     0x6c  NZOP1Component.o [1]
    .data                 inited   0xe1083938     0x6c  TZNPPacket.o [1]
    .data                 inited   0xe10839a4     0x6c  UMMComponent.o [1]
    .data                 inited   0xe1083a10     0x64  AppCn.o [1]
    .data                 inited   0xe1083a74     0x64  AppCn.o [1]
    .data                 inited   0xe1083ad8     0x60  APVComponent.o [1]
    .data                 inited   0xe1083b38     0x60  DZ1Component.o [1]
    .data                 inited   0xe1083b98     0x60  DZ2Component.o [1]
    .data                 inited   0xe1083bf8     0x60  DZ3Component.o [1]
    .data                 inited   0xe1083c58     0x60  DZ4Component.o [1]
    .data                 inited   0xe1083cb8     0x60  DZ4Component.o [1]
    .data                 inited   0xe1083d18     0x60  DZ5Component.o [1]
    .data                 inited   0xe1083d78     0x60  DZ5Component.o [1]
    .data                 inited   0xe1083dd8     0x60  MTZ1Component.o [1]
    .data                 inited   0xe1083e38     0x60  MTZ1Component.o [1]
    .data                 inited   0xe1083e98     0x60  MTZ2Component.o [1]
    .data                 inited   0xe1083ef8     0x60  MTZ2Component.o [1]
    .data                 inited   0xe1083f58     0x60  MTZ3Component.o [1]
    .data                 inited   0xe1083fb8     0x60  MTZ3Component.o [1]
    .data                 inited   0xe1084018     0x60  MTZ4Component.o [1]
    .data                 inited   0xe1084078     0x60  MTZ4Component.o [1]
    .data                 inited   0xe10840d8     0x60  MTZ5Component.o [1]
    .data                 inited   0xe1084138     0x60  MTZ5Component.o [1]
    .data                 inited   0xe1084198     0x60  NZOP1Component.o [1]
    .data                 inited   0xe10841f8     0x60  NZOP2Component.o [1]
    .data                 inited   0xe1084258     0x60  OFComponent.o [1]
    .data                 inited   0xe10842b8     0x60  PFComponent.o [1]
    .data                 inited   0xe1084318     0x60  PRM1Component.o [1]
    .data                 inited   0xe1084378     0x60  TZNP1Component.o [1]
    .data                 inited   0xe10843d8     0x60  TZNP2Component.o [1]
    .data                 inited   0xe1084438     0x60  TZNP3Component.o [1]
    .data                 inited   0xe1084498     0x60  TZNP4Component.o [1]
    .data                 inited   0xe10844f8     0x60  TZNP5Component.o [1]
    .data                 inited   0xe1084558     0x60  UMMComponent.o [1]
    .data                 inited   0xe10845b8     0x60  UROVComponent.o [1]
    .data                 inited   0xe1084618     0x60  WLComponent.o [1]
    .data                 inited   0xe1084678     0x58  MTZ2Component.o [1]
    .data                 inited   0xe10846d0     0x58  MTZ3Component.o [1]
    .data                 inited   0xe1084728     0x58  MTZ4Component.o [1]
    .data                 inited   0xe1084780     0x58  MTZ5Component.o [1]
    .data                 inited   0xe10847d8     0x58  TZNP1Component.o [1]
    .data                 inited   0xe1084830     0x58  TZNP2Component.o [1]
    .data                 inited   0xe1084888     0x58  TZNP3Component.o [1]
    .data                 inited   0xe10848e0     0x58  TZNP4Component.o [1]
    .data                 inited   0xe1084938     0x58  TZNP5Component.o [1]
    .data                 inited   0xe1084990     0x54  APVComponent.o [1]
    .data                 inited   0xe10849e4     0x54  DZ3Component.o [1]
    .data                 inited   0xe1084a38     0x54  DZ4Component.o [1]
    .data                 inited   0xe1084a8c     0x54  DZ5Component.o [1]
    .data                 inited   0xe1084ae0     0x54  MTZ1Component.o [1]
    .data                 inited   0xe1084b34     0x54  MTZ1Component.o [1]
    .data                 inited   0xe1084b88     0x54  UMMComponent.o [1]
    .data                 inited   0xe1084bdc     0x50  DZ2Component.o [1]
    .data                 inited   0xe1084c2c     0x50  DZ3Component.o [1]
    .data                 inited   0xe1084c7c     0x50  DZ4Component.o [1]
    .data                 inited   0xe1084ccc     0x50  DZ5Component.o [1]
    .data                 inited   0xe1084d1c     0x48  NZOP1Component.o [1]
    .data                 inited   0xe1084d64     0x48  NZOP1Component.o [1]
    .data                 inited   0xe1084dac     0x48  NZOP2Component.o [1]
    .data                 inited   0xe1084df4     0x48  NZOP2Component.o [1]
    .data                 inited   0xe1084e3c     0x48  NZOP2Component.o [1]
    .data                 inited   0xe1084e84     0x48  NZOPPacket.o [1]
    .data                 inited   0xe1084ecc     0x48  PRM1Component.o [1]
    .data                 inited   0xe1084f14     0x48  PRM1Component.o [1]
    .data                 inited   0xe1084f5c     0x48  ResetSystemMenu.o [1]
    .data                 inited   0xe1084fa4     0x44  AppCn.o [1]
    .data                 inited   0xe1084fe8     0x40  MTZ1Component.o [1]
    .data                 inited   0xe1085028     0x3c  PRM1Component.o [1]
    .data                 inited   0xe1085064     0x3c  PRM1Component.o [1]
    .data                 inited   0xe10850a0     0x3c  TZNP1Component.o [1]
    .data                 inited   0xe10850dc     0x3c  TZNP2Component.o [1]
    .data                 inited   0xe1085118     0x3c  TZNP3Component.o [1]
    .data                 inited   0xe1085154     0x3c  TZNP4Component.o [1]
    .data                 inited   0xe1085190     0x3c  TZNP5Component.o [1]
    .data                 inited   0xe10851cc     0x3c  UROVComponent.o [1]
    .data                 inited   0xe1085208     0x38  DZ1Component.o [1]
    .data                 inited   0xe1085240     0x38  NZOP1Component.o [1]
    .data                 inited   0xe1085278     0x38  NZOP2Component.o [1]
    .data                 inited   0xe10852b0     0x34  CTpu.o [1]
    .data                 inited   0xe10852e4     0x30  AppCn.o [1]
    .data                 inited   0xe1085314     0x30  APVComponent.o [1]
    .data                 inited   0xe1085344     0x30  PRM1Component.o [1]
    .data                 inited   0xe1085374     0x30  UROVComponent.o [1]
    .data                 inited   0xe10853a4     0x30  UROVComponent.o [1]
    .data                 inited   0xe10853d4     0x2c  AppCn.o [1]
    .data                 inited   0xe1085400     0x28  CTpu.o [1]
    .data                 inited   0xe1085428     0x24  APVComponent.o [1]
    .data                 inited   0xe108544c     0x24  CTpu.o [1]
    .data                 inited   0xe1085470     0x24  CTpu.o [1]
    .data                 inited   0xe1085494     0x24  CTpu.o [1]
    .data                 inited   0xe10854b8     0x24  DZ1Component.o [1]
    .data                 inited   0xe10854dc     0x24  DZ1Component.o [1]
    .data                 inited   0xe1085500     0x24  DZ1Component.o [1]
    .data                 inited   0xe1085524     0x24  DZ3Component.o [1]
    .data                 inited   0xe1085548     0x24  DZ3Component.o [1]
    .data                 inited   0xe108556c     0x24  DZ4Component.o [1]
    .data                 inited   0xe1085590     0x24  DZ5Component.o [1]
    .data                 inited   0xe10855b4     0x24  lpc32xx_clkpwr_driver.o [1]
    .data                 inited   0xe10855d8     0x24  MTZ2Component.o [1]
    .data                 inited   0xe10855fc     0x24  MTZ3Component.o [1]
    .data                 inited   0xe1085620     0x24  MTZ4Component.o [1]
    .data                 inited   0xe1085644     0x24  MTZ5Component.o [1]
    .data                 inited   0xe1085668     0x24  OFComponent.o [1]
    .data                 inited   0xe108568c     0x24  OFComponent.o [1]
    .data                 inited   0xe10856b0     0x24  PRM1Component.o [1]
    .data                 inited   0xe10856d4     0x24  PRM1Component.o [1]
    .data                 inited   0xe10856f8     0x24  PRM1Component.o [1]
    .data                 inited   0xe108571c     0x24  PRM1Component.o [1]
    .data                 inited   0xe1085740     0x24  ResetSystemMenu.o [1]
    .data                 inited   0xe1085764     0x24  ResetSystemMenu.o [1]
    .data                 inited   0xe1085788     0x24  ResetSystemMenu.o [1]
    .data                 inited   0xe10857ac     0x24  TZNP1Component.o [1]
    .data                 inited   0xe10857d0     0x24  TZNP2Component.o [1]
    .data                 inited   0xe10857f4     0x24  TZNP3Component.o [1]
    .data                 inited   0xe1085818     0x24  TZNP4Component.o [1]
    .data                 inited   0xe108583c     0x24  TZNP5Component.o [1]
    .data                 inited   0xe1085860     0x24  UMMComponent.o [1]
    .data                 inited   0xe1085884     0x24  WLComponent.o [1]
    .data                 inited   0xe10858a8     0x20  ssp1L.o [1]
    .data                 inited   0xe10858c8     0x20  ssp1L.o [1]
    .data                 inited   0xe10858e8     0x20  UROVComponent.o [1]
    .data                 inited   0xe1085908     0x1c  CTpu.o [1]
    .textrw               inited   0xe1085924     0x1c  hu7l.o [1]
    .data                 inited   0xe1085940     0x18  AppCn.o [1]
    .data                 inited   0xe1085958     0x18  AppCn.o [1]
    .data                 inited   0xe1085970     0x18  AppCn.o [1]
    .data                 inited   0xe1085988     0x18  AppCn.o [1]
    .data                 inited   0xe10859a0     0x18  AppCn.o [1]
    .data                 inited   0xe10859b8     0x18  ResetSystemMenu.o [1]
    .data                 inited   0xe10859d0     0x18  ResetSystemMenu.o [1]
    .data                 inited   0xe10859e8     0x18  ResetSystemMenu.o [1]
    .data                 inited   0xe1085a00     0x18  ResetSystemMenu.o [1]
    .data                 inited   0xe1085a18     0x18  ResetSystemMenu.o [1]
    .data                 inited   0xe1085a30     0x18  ResetSystemMenu.o [1]
    .data                 inited   0xe1085a48     0x18  ResetSystemMenu.o [1]
    .data                 inited   0xe1085a60     0x18  ResetSystemMenu.o [1]
    .data                 inited   0xe1085a78     0x18  ResetSystemMenu.o [1]
    .data                 inited   0xe1085a90     0x18  ViewMenuCnf.o [1]
    .data                 inited   0xe1085aa8     0x18  ViewMenuCnf.o [1]
    .data                 inited   0xe1085ac0     0x14  DZPacket.o [1]
    .data                 inited   0xe1085ad4     0x14  lpu.o [1]
    .data                 inited   0xe1085ae8     0x14  MTZPacket.o [1]
    .data                 inited   0xe1085afc     0x14  TZNPPacket.o [1]
    .data                 inited   0xe1085b10     0x14  ViewMenuCnf.o [1]
    .data                 inited   0xe1085b24     0x10  lpc32xx_clkpwr_driver.o [1]
    .data                 inited   0xe1085b34     0x10  lpc32xx_clkpwr_driver.o [1]
    .data                 inited   0xe1085b44      0xc  main.o [1]
    .data                 inited   0xe1085b50      0xc  main.o [1]
    .data                 inited   0xe1085b5c      0xc  main.o [1]
    .data                 inited   0xe1085b68      0xc  PFComponent.o [1]
    .data                 inited   0xe1085b74      0x8  AppCn.o [1]
    .data                 inited   0xe1085b7c      0x4  APVComponent.o [1]
    .data                 inited   0xe1085b80      0x8  isNewZonaMethodVRT.o [1]
    .data                 inited   0xe1085b88      0x8  isNewZonaMethodVRT.o [1]
    .data                 inited   0xe1085b90      0x8  MTZ1Component.o [1]
    .data                 inited   0xe1085b98      0x8  MTZ2Component.o [1]
    .data                 inited   0xe1085ba0      0x8  MTZ3Component.o [1]
    .data                 inited   0xe1085ba8      0x8  MTZ4Component.o [1]
    .data                 inited   0xe1085bb0      0x8  MTZ5Component.o [1]
    .data                 inited   0xe1085bb8      0x8  NZOP1Component.o [1]
    .data                 inited   0xe1085bc0      0x8  NZOP2Component.o [1]
    .data                 inited   0xe1085bc8      0x8  NZOPPacket.o [1]
    .data                 inited   0xe1085bd0      0x8  PRM1Component.o [1]
    .data                 inited   0xe1085bd8      0x8  TZNP1Component.o [1]
    .data                 inited   0xe1085be0      0x8  TZNP2Component.o [1]
    .data                 inited   0xe1085be8      0x8  TZNP3Component.o [1]
    .data                 inited   0xe1085bf0      0x8  TZNP4Component.o [1]
    .data                 inited   0xe1085bf8      0x8  TZNP5Component.o [1]
    .data                 inited   0xe1085c00      0x8  UROVComponent.o [1]
    .data                 inited   0xe1085c08      0x8  WLComponent.o [1]
    .data                 inited   0xe1085c10      0x4  cicloGrammaEEPROM1.o [1]
    .data                 inited   0xe1085c14      0x4  DZ1Component.o [1]
    .data                 inited   0xe1085c18      0x4  DZ2Component.o [1]
    .data                 inited   0xe1085c1c      0x4  DZ3Component.o [1]
    .data                 inited   0xe1085c20      0x4  DZ4Component.o [1]
    .data                 inited   0xe1085c24      0x4  DZ5Component.o [1]
    .data                 inited   0xe1085c28      0x4  ici_api.o [1]
    .data                 inited   0xe1085c2c      0x4  isNewZonaMethodVRT.o [1]
    .data                 inited   0xe1085c30      0x4  isNewZonaMethodVRT.o [1]
    .data                 inited   0xe1085c34      0x4  isNewZonaMethodVRT.o [1]
    .data                 inited   0xe1085c38      0x4  isNewZonaMethodVRT.o [1]
    .data                 inited   0xe1085c3c      0x4  isNewZonaMethodVRT.o [1]
    .data                 inited   0xe1085c40      0x4  isNewZonaMethodVRT.o [1]
    .data                 inited   0xe1085c44      0x4  logictimers.o [1]
    .data                 inited   0xe1085c48      0x4  periodOperations.o [1]
    .data                 inited   0xe1085c4c      0x4  ssp1.o [1]
    .data                 inited   0xe1085c50      0x4  ssp1L.o [1]
    .data                 inited   0xe1085c54      0x4  UMMComponent.o [1]
    .data                 inited   0xe1085c58      0x4  WLComponent.o [1]
    __DLIB_PERTHREAD      inited   0xe1085c5c      0x4  errno.o [3]
  .bss                    zero     0xe1085c60   0x5568  rangmanager.o [1]
  .bss                    zero     0xe108b1c8   0x5544  psupervisor.o [1]
  .bss                    zero     0xe109070c   0x44c0  ici_api.o [1]
  .bss                    zero     0xe1094bcc   0x3c00  widelogmanager.o [1]
  .bss                    zero     0xe10987cc   0x2320  br_var.o [1]
  .bss                    zero     0xe109aaec   0x20d0  logictimers.o [1]
  .bss                    zero     0xe109cbbc   0x1f44  ustmanager.o [1]
  .bss                    zero     0xe109eb00   0x1c20  psupervisor.o [1]
  .bss                    zero     0xe10a0720   0x1168  toSpeedDIS.o [1]
  .bss                    zero     0xe10a1888    0xfa4  logictimers.o [1]
  .bss                    zero     0xe10a282c    0xaf0  psupervisor.o [1]
  .bss                    zero     0xe10a331c    0xa54  rangmanager.o [1]
  .bss                    zero     0xe10a3d70    0xa0c  rangmanager.o [1]
  .bss                    zero     0xe10a477c    0x960  logictimers.o [1]
  .bss                    zero     0xe10a50dc    0x7dc  ustmanager.o [1]
  .bss                    zero     0xe10a58b8    0x780  toSpeedDIS.o [1]
  .bss                    zero     0xe10a6038    0x708  psupervisor.o [1]
  .bss                    zero     0xe10a6740    0x600  main.o [1]
  .bss                    zero     0xe10a6d40    0x5a0  psupervisor.o [1]
  .bss                    zero     0xe10a72e0    0x50c  rangmanager.o [1]
  .bss                    zero     0xe10a77ec     0x4c  CTpu.o [1]
  .bss                    zero     0xe10a7838    0x500  isNewZonaMethodVRT.o [1]
  .bss                    zero     0xe10a7d38    0x500  toSpeedDIS.o [1]
  .bss                    zero     0xe10a8238    0x4b0  logictimers.o [1]
  .bss                    zero     0xe10a86e8    0x400  JLINKDCC_Process.o [1]
  .bss                    zero     0xe10a8ae8    0x338  AppCn.o [1]
  .bss                    zero     0xe10a8e20    0x330  ici_api.o [1]
  .bss                    zero     0xe10a9150    0x320  psupervisor.o [1]
  .bss                    zero     0xe10a9470    0x28c  lpu.o [1]
  .bss                    zero     0xe10a96fc    0x28c  lpu.o [1]
  .bss                    zero     0xe10a9988    0x274  systemMenu.o [1]
  .bss                    zero     0xe10a9bfc    0x24c  AppCn.o [1]
  .bss                    zero     0xe10a9e48    0x23c  AppCn.o [1]
  .bss                    zero     0xe10aa084    0x23c  SettingIci_data.o [1]
  .bss                    zero     0xe10aa2c0    0x210  lpu.o [1]
  .bss                    zero     0xe10aa4d0    0x210  lpu.o [1]
  .bss                    zero     0xe10aa6e0    0x200  hu2l.o [1]
  .bss                    zero     0xe10aa8e0    0x200  hu2l.o [1]
  .bss                    zero     0xe10aaae0    0x200  hu7l.o [1]
  .bss                    zero     0xe10aace0    0x19c  ustmanager.o [1]
  .bss                    zero     0xe10aae7c    0x190  psupervisor.o [1]
  .bss                    zero     0xe10ab00c    0x190  ustmanager.o [1]
  .bss                    zero     0xe10ab19c    0x180  lpc32xx_intc_driver.o [1]
  .bss                    zero     0xe10ab31c    0x100  widelogmanager.o [1]
  .bss                    zero     0xe10ab41c     0xe8  CTpu.o [1]
  .bss                    zero     0xe10ab504     0xd4  lpu.o [1]
  .bss                    zero     0xe10ab5d8     0xc8  psupervisor.o [1]
  .bss                    zero     0xe10ab6a0     0xa0  isNewZonaMethodVRT.o [1]
  .bss                    zero     0xe10ab740     0xa0  isNewZonaMethodVRT.o [1]
  .bss                    zero     0xe10ab7e0     0xa0  isNewZonaMethodVRT.o [1]
  .bss                    zero     0xe10ab880     0xa0  isNewZonaMethodVRT.o [1]
  .bss                    zero     0xe10ab920     0xa0  isNewZonaMethodVRT.o [1]
  .bss                    zero     0xe10ab9c0     0xa0  isNewZonaMethodVRT.o [1]
  .bss                    zero     0xe10aba60     0xa0  isNewZonaMethodVRT.o [1]
  .bss                    zero     0xe10abb00     0xa0  isNewZonaMethodVRT.o [1]
  .bss                    zero     0xe10abba0     0xa0  isZonaTrianMethodVRT.o [1]
  .bss                    zero     0xe10abc40     0xa0  isZonaTrianMethodVRT.o [1]
  .bss                    zero     0xe10abce0     0x90  psupervisor.o [1]
  .bss                    zero     0xe10abd70     0x90  psupervisor.o [1]
  .bss                    zero     0xe10abe00     0x90  ViewRepozit.o [1]
  .bss                    zero     0xe10abe90     0x8c  psvisor_help.o [1]
  .bss                    zero     0xe10abf1c     0x80  isNewZonaMethodVRT.o [1]
  .bss                    zero     0xe10abf9c     0x60  CTpu.o [1]
  .bss                    zero     0xe10abffc     0x50  rangmanager.o [1]
  .bss                    zero     0xe10ac04c     0x50  ResetSystemMenu.o [1]
  .bss                    zero     0xe10ac09c     0x50  translateI.o [1]
  .bss                    zero     0xe10ac0ec     0x50  widelogmanager.o [1]
  .bss                    zero     0xe10ac13c     0x50  widelogmanager.o [1]
  .bss                    zero     0xe10ac18c     0x50  widelogmanager.o [1]
  .bss                    zero     0xe10ac1dc     0x4c  lpcAV1_dma_driver.o [1]
  .bss                    zero     0xe10ac228     0x4c  lpu.o [1]
  .bss                    zero     0xe10ac274     0x4c  lpu.o [1]
  .bss                    zero     0xe10ac2c0     0x4c  lpu.o [1]
  .bss                    zero     0xe10ac30c     0x4c  lpu.o [1]
  .bss                    zero     0xe10ac358     0x48  CTpu.o [1]
  .bss                    zero     0xe10ac3a0     0x44  CTpu.o [1]
  .bss                    zero     0xe10ac3e4     0x44  CTpu.o [1]
  .bss                    zero     0xe10ac428     0x40  CTpu.o [1]
  .bss                    zero     0xe10ac468     0x38  AppCn.o [1]
  .bss                    zero     0xe10ac4a0     0x30  lpcAV1_ssp_driver.o [1]
  .bss                    zero     0xe10ac4d0     0x2c  callBackElement.o [1]
  .bss                    zero     0xe10ac4fc     0x2c  callBackElement.o [1]
  .bss                    zero     0xe10ac528     0x28  DZPacket.o [1]
  .bss                    zero     0xe10ac550     0x28  isNewZonaMethodVRT.o [1]
  .bss                    zero     0xe10ac578     0x28  MTZPacket.o [1]
  .bss                    zero     0xe10ac5a0     0x28  NZOPPacket.o [1]
  .bss                    zero     0xe10ac5c8     0x28  toSpeedDIS.o [1]
  .bss                    zero     0xe10ac5f0     0x28  toSpeedDIS.o [1]
  .bss                    zero     0xe10ac618     0x28  toSpeedDIS.o [1]
  .bss                    zero     0xe10ac640     0x28  toSpeedDIS.o [1]
  .bss                    zero     0xe10ac668     0x28  toSpeedDIS.o [1]
  .bss                    zero     0xe10ac690     0x28  toSpeedDIS.o [1]
  .bss                    zero     0xe10ac6b8     0x28  toSpeedDIS.o [1]
  .bss                    zero     0xe10ac6e0     0x28  translateI.o [1]
  .bss                    zero     0xe10ac708     0x28  translateI.o [1]
  .bss                    zero     0xe10ac730     0x28  TZNPPacket.o [1]
  .bss                    zero     0xe10ac758     0x20  AppCn.o [1]
  .bss                    zero     0xe10ac778     0x20  ssp1L.o [1]
  .bss                    zero     0xe10ac798     0x1c  CTpu.o [1]
  .bss                    zero     0xe10ac7b4     0x18  CTpu.o [1]
  .bss                    zero     0xe10ac7cc     0x10  AppCn.o [1]
  .bss                    zero     0xe10ac7dc     0x10  AppCn.o [1]
  .bss                    zero     0xe10ac7ec      0xc  AppCn.o [1]
  .bss                    zero     0xe10ac7f8     0x10  isNewZonaMethodVRT.o [1]
  .bss                    zero     0xe10ac808     0x10  isNewZonaMethodVRT.o [1]
  .bss                    zero     0xe10ac818     0x10  isNewZonaMethodVRT.o [1]
  .bss                    zero     0xe10ac828     0x10  isNewZonaMethodVRT.o [1]
  .bss                    zero     0xe10ac838     0x10  isNewZonaMethodVRT.o [1]
  .bss                    zero     0xe10ac848     0x10  isNewZonaMethodVRT.o [1]
  .bss                    zero     0xe10ac858     0x10  isNewZonaMethodVRT.o [1]
  .bss                    zero     0xe10ac868     0x10  isNewZonaMethodVRT.o [1]
  .bss                    zero     0xe10ac878     0x10  isNewZonaMethodVRT.o [1]
  .bss                    zero     0xe10ac888     0x10  isNewZonaMethodVRT.o [1]
  .bss                    zero     0xe10ac898     0x10  isNewZonaMethodVRT.o [1]
  .bss                    zero     0xe10ac8a8     0x10  isNewZonaMethodVRT.o [1]
  .bss                    zero     0xe10ac8b8     0x10  isNewZonaMethodVRT.o [1]
  .bss                    zero     0xe10ac8c8     0x10  isNewZonaMethodVRT.o [1]
  .bss                    zero     0xe10ac8d8     0x10  isNewZonaMethodVRT.o [1]
  .bss                    zero     0xe10ac8e8     0x10  isNewZonaMethodVRT.o [1]
  .bss                    zero     0xe10ac8f8     0x10  isZonaTrianMethodVRT.o [1]
  .bss                    zero     0xe10ac908     0x10  isZonaTrianMethodVRT.o [1]
  .bss                    zero     0xe10ac918     0x10  isZonaTrianMethodVRT.o [1]
  .bss                    zero     0xe10ac928     0x10  isZonaTrianMethodVRT.o [1]
  .bss                    zero     0xe10ac938     0x10  lpcAV1_timer_driver.o [1]
  .bss                    zero     0xe10ac948     0x10  lpcAV1_timer_driver.o [1]
  .bss                    zero     0xe10ac958     0x10  TZNP1Component.o [1]
  .bss                    zero     0xe10ac968      0xc  AppCn.o [1]
  .bss                    zero     0xe10ac974      0xc  AppCn.o [1]
  .bss                    zero     0xe10ac980      0xc  AppCn.o [1]
  .bss                    zero     0xe10ac98c      0xc  DZ2Component.o [1]
  .bss                    zero     0xe10ac998      0xc  MTZ2Component.o [1]
  .bss                    zero     0xe10ac9a4      0x8  AppCn.o [1]
  .bss                    zero     0xe10ac9ac      0x8  AppCn.o [1]
  .bss                    zero     0xe10ac9b4      0x4  AppCn.o [1]
  .bss                    zero     0xe10ac9b8      0x8  isNewZonaMethodVRT.o [1]
  .bss                    zero     0xe10ac9c0      0x8  isNewZonaMethodVRT.o [1]
  .bss                    zero     0xe10ac9c8      0x8  isNewZonaMethodVRT.o [1]
  .bss                    zero     0xe10ac9d0      0x8  isNewZonaMethodVRT.o [1]
  .bss                    zero     0xe10ac9d8      0x8  isNewZonaMethodVRT.o [1]
  .bss                    zero     0xe10ac9e0      0x8  isNewZonaMethodVRT.o [1]
  .bss                    zero     0xe10ac9e8      0x8  isNewZonaMethodVRT.o [1]
  .bss                    zero     0xe10ac9f0      0x8  isNewZonaMethodVRT.o [1]
  .bss                    zero     0xe10ac9f8      0x8  isNewZonaMethodVRT.o [1]
  .bss                    zero     0xe10aca00      0x8  isNewZonaMethodVRT.o [1]
  .bss                    zero     0xe10aca08      0x8  isNewZonaMethodVRT.o [1]
  .bss                    zero     0xe10aca10      0x8  isNewZonaMethodVRT.o [1]
  .bss                    zero     0xe10aca18      0x8  isNewZonaMethodVRT.o [1]
  .bss                    zero     0xe10aca20      0x8  isNewZonaMethodVRT.o [1]
  .bss                    zero     0xe10aca28      0x8  isNewZonaMethodVRT.o [1]
  .bss                    zero     0xe10aca30      0x8  isNewZonaMethodVRT.o [1]
  .bss                    zero     0xe10aca38      0x8  isNewZonaMethodVRT.o [1]
  .bss                    zero     0xe10aca40      0x8  isNewZonaMethodVRT.o [1]
  .bss                    zero     0xe10aca48      0x8  isNewZonaMethodVRT.o [1]
  .bss                    zero     0xe10aca50      0x8  isNewZonaMethodVRT.o [1]
  .bss                    zero     0xe10aca58      0x8  isNewZonaMethodVRT.o [1]
  .bss                    zero     0xe10aca60      0x8  isNewZonaMethodVRT.o [1]
  .bss                    zero     0xe10aca68      0x8  isNewZonaMethodVRT.o [1]
  .bss                    zero     0xe10aca70      0x8  isNewZonaMethodVRT.o [1]
  .bss                    zero     0xe10aca78      0x8  isNewZonaMethodVRT.o [1]
  .bss                    zero     0xe10aca80      0x8  isNewZonaMethodVRT.o [1]
  .bss                    zero     0xe10aca88      0x8  isNewZonaMethodVRT.o [1]
  .bss                    zero     0xe10aca90      0x8  isNewZonaMethodVRT.o [1]
  .bss                    zero     0xe10aca98      0x8  isNewZonaMethodVRT.o [1]
  .bss                    zero     0xe10acaa0      0x8  isNewZonaMethodVRT.o [1]
  .bss                    zero     0xe10acaa8      0x8  isNewZonaMethodVRT.o [1]
  .bss                    zero     0xe10acab0      0x8  isNewZonaMethodVRT.o [1]
  .bss                    zero     0xe10acab8      0x8  isNewZonaMethodVRT.o [1]
  .bss                    zero     0xe10acac0      0x8  isNewZonaMethodVRT.o [1]
  .bss                    zero     0xe10acac8      0x8  isNewZonaMethodVRT.o [1]
  .bss                    zero     0xe10acad0      0x8  isNewZonaMethodVRT.o [1]
  .bss                    zero     0xe10acad8      0x8  isZonaTrianMethodVRT.o [1]
  .bss                    zero     0xe10acae0      0x8  isZonaTrianMethodVRT.o [1]
  .bss                    zero     0xe10acae8      0x8  JLINKDCC_Process.o [1]
  .bss                    zero     0xe10acaf0      0x8  JLINKDCC_Process.o [1]
  .bss                    zero     0xe10acaf8      0x8  SettingIci_data.o [1]
  .bss                    zero     0xe10acb00      0x8  SettingIci_data.o [1]
  .bss                    zero     0xe10acb08      0x8  SettingIci_data.o [1]
  .bss                    zero     0xe10acb10      0x8  SettingIci_data.o [1]
  .bss                    zero     0xe10acb18      0x8  SettingIci_data.o [1]
  .bss                    zero     0xe10acb20      0x8  SettingIci_data.o [1]
  .bss                    zero     0xe10acb28      0x8  SettingIci_data.o [1]
  .bss                    zero     0xe10acb30      0x8  SettingIci_data.o [1]
  .bss                    zero     0xe10acb38      0x8  SettingIci_data.o [1]
  .bss                    zero     0xe10acb40      0x8  SettingIci_data.o [1]
  .bss                    zero     0xe10acb48      0x8  SettingIci_data.o [1]
  .bss                    zero     0xe10acb50      0x8  SettingIci_data.o [1]
  .bss                    zero     0xe10acb58      0x8  SettingIci_data.o [1]
  .bss                    zero     0xe10acb60      0x8  SettingIci_data.o [1]
  .bss                    zero     0xe10acb68      0x8  SettingIci_data.o [1]
  .bss                    zero     0xe10acb70      0x8  SettingIci_data.o [1]
  .bss                    zero     0xe10acb78      0x8  SettingIci_data.o [1]
  .bss                    zero     0xe10acb80      0x8  SettingIci_data.o [1]
  .bss                    zero     0xe10acb88      0x8  SettingIci_data.o [1]
  .bss                    zero     0xe10acb90      0x8  SettingIci_data.o [1]
  .bss                    zero     0xe10acb98      0x8  SettingIci_data.o [1]
  .bss                    zero     0xe10acba0      0x8  SettingIci_data.o [1]
  .bss                    zero     0xe10acba8      0x8  SettingIci_data.o [1]
  .bss                    zero     0xe10acbb0      0x8  SettingIci_data.o [1]
  .bss                    zero     0xe10acbb8      0x8  SettingIci_data.o [1]
  .bss                    zero     0xe10acbc0      0x8  SettingIci_data.o [1]
  .bss                    zero     0xe10acbc8      0x8  SettingIci_data.o [1]
  .bss                    zero     0xe10acbd0      0x8  SettingIci_data.o [1]
  .bss                    zero     0xe10acbd8      0x8  SettingIci_data.o [1]
  .bss                    zero     0xe10acbe0      0x8  SettingIci_data.o [1]
  .bss                    zero     0xe10acbe8      0x8  SettingIci_data.o [1]
  .bss                    zero     0xe10acbf0      0x8  SettingIci_data.o [1]
  .bss                    zero     0xe10acbf8      0x8  SettingIci_data.o [1]
  .bss                    zero     0xe10acc00      0x8  SettingIci_data.o [1]
  .bss                    zero     0xe10acc08      0x8  SettingIci_data.o [1]
  .bss                    zero     0xe10acc10      0x8  SettingIci_data.o [1]
  .bss                    zero     0xe10acc18      0x4  AppCn.o [1]
  .bss                    zero     0xe10acc1c      0x4  AppCn.o [1]
  .bss                    zero     0xe10acc20      0x4  AppCn.o [1]
  .bss                    zero     0xe10acc24      0x4  AppCn.o [1]
  .bss                    zero     0xe10acc28      0x4  AppCn.o [1]
  .bss                    zero     0xe10acc2c      0x4  AppCn.o [1]
  .bss                    zero     0xe10acc30      0x4  AppCn.o [1]
  .bss                    zero     0xe10acc34      0x4  AppCn.o [1]
  .bss                    zero     0xe10acc38      0x4  AppCn.o [1]
  .bss                    zero     0xe10acc3c      0x4  AppCn.o [1]
  .bss                    zero     0xe10acc40      0x4  AppCn.o [1]
  .bss                    zero     0xe10acc44      0x4  AppCn.o [1]
  .bss                    zero     0xe10acc48      0x4  AppCn.o [1]
  .bss                    zero     0xe10acc4c      0x4  AppCn.o [1]
  .bss                    zero     0xe10acc50      0x4  AppCn.o [1]
  .bss                    zero     0xe10acc54      0x4  AppCn.o [1]
  .bss                    zero     0xe10acc58      0x4  AppCn.o [1]
  .bss                    zero     0xe10acc5c      0x4  AppCn.o [1]
  .bss                    zero     0xe10acc60      0x4  AppCn.o [1]
  .bss                    zero     0xe10acc64      0x4  AppCn.o [1]
  .bss                    zero     0xe10acc68      0x4  AppCn.o [1]
  .bss                    zero     0xe10acc6c      0x4  AppCn.o [1]
  .bss                    zero     0xe10acc70      0x4  AppCn.o [1]
  .bss                    zero     0xe10acc74      0x4  AppCn.o [1]
  .bss                    zero     0xe10acc78      0x4  APVComponent.o [1]
  .bss                    zero     0xe10acc7c      0x4  callBackElement.o [1]
  .bss                    zero     0xe10acc80      0x4  callBackElement.o [1]
  .bss                    zero     0xe10acc84      0x4  cicloGrammaEEPROM1.o [1]
  .bss                    zero     0xe10acc88      0x4  cicloGrammaEEPROM1.o [1]
  .bss                    zero     0xe10acc8c      0x4  cicloGrammaEEPROM1.o [1]
  .bss                    zero     0xe10acc90      0x4  DZ1Component.o [1]
  .bss                    zero     0xe10acc94      0x4  DZ1Component.o [1]
  .bss                    zero     0xe10acc98      0x4  DZ1Component.o [1]
  .bss                    zero     0xe10acc9c      0x4  DZ2Component.o [1]
  .bss                    zero     0xe10acca0      0x4  DZ2Component.o [1]
  .bss                    zero     0xe10acca4      0x4  DZ2Component.o [1]
  .bss                    zero     0xe10acca8      0x4  DZ2Component.o [1]
  .bss                    zero     0xe10accac      0x4  DZ2Component.o [1]
  .bss                    zero     0xe10accb0      0x4  DZ2Component.o [1]
  .bss                    zero     0xe10accb4      0x4  DZ2Component.o [1]
  .bss                    zero     0xe10accb8      0x4  DZ2Component.o [1]
  .bss                    zero     0xe10accbc      0x4  DZ2Component.o [1]
  .bss                    zero     0xe10accc0      0x4  DZ2Component.o [1]
  .bss                    zero     0xe10accc4      0x4  hu2.o [1]
  .bss                    zero     0xe10accc8      0x4  hu2.o [1]
  .bss                    zero     0xe10acccc      0x4  hu2l.o [1]
  .bss                    zero     0xe10accd0      0x4  hu2l.o [1]
  .bss                    zero     0xe10accd4      0x4  hu2l.o [1]
  .bss                    zero     0xe10accd8      0x4  hu2l.o [1]
  .bss                    zero     0xe10accdc      0x4  hu2l.o [1]
  .bss                    zero     0xe10acce0      0x4  hu2l.o [1]
  .bss                    zero     0xe10acce4      0x4  hu2l.o [1]
  .bss                    zero     0xe10acce8      0x4  hu2l.o [1]
  .bss                    zero     0xe10accec      0x4  hu2l.o [1]
  .bss                    zero     0xe10accf0      0x4  hu2l.o [1]
  .bss                    zero     0xe10accf4      0x4  hu7l.o [1]
  .bss                    zero     0xe10accf8      0x4  hu7l.o [1]
  .bss                    zero     0xe10accfc      0x4  hu7l.o [1]
  .bss                    zero     0xe10acd00      0x4  hu7l.o [1]
  .bss                    zero     0xe10acd04      0x4  hu7l.o [1]
  .bss                    zero     0xe10acd08      0x4  ici_api.o [1]
  .bss                    zero     0xe10acd0c      0x4  ici_api.o [1]
  .bss                    zero     0xe10acd10      0x4  ici_api.o [1]
  .bss                    zero     0xe10acd14      0x4  isNewZonaMethodVRT.o [1]
  .bss                    zero     0xe10acd18      0x4  isNewZonaMethodVRT.o [1]
  .bss                    zero     0xe10acd1c      0x4  JLINKDCC_Process.o [1]
  .bss                    zero     0xe10acd20      0x4  JLINKDCC_Process.o [1]
  .bss                    zero     0xe10acd24      0x4  JLINKDCC_Process.o [1]
  .bss                    zero     0xe10acd28      0x4  JLINKDCC_Process.o [1]
  .bss                    zero     0xe10acd2c      0x4  logictimers.o [1]
  .bss                    zero     0xe10acd30      0x4  lpc32xx_intc_driver.o [1]
  .bss                    zero     0xe10acd34      0x4  lpu.o [1]
  .bss                    zero     0xe10acd38      0x4  lpu.o [1]
  .bss                    zero     0xe10acd3c      0x4  lpu.o [1]
  .bss                    zero     0xe10acd40      0x4  lpu.o [1]
  .bss                    zero     0xe10acd44      0x4  lpu.o [1]
  .bss                    zero     0xe10acd48      0x4  lpu.o [1]
  .bss                    zero     0xe10acd4c      0x4  lpu.o [1]
  .bss                    zero     0xe10acd50      0x4  lpu.o [1]
  .bss                    zero     0xe10acd54      0x4  lpu.o [1]
  .bss                    zero     0xe10acd58      0x4  main.o [1]
  .bss                    zero     0xe10acd5c      0x4  main.o [1]
  .bss                    zero     0xe10acd60      0x4  main.o [1]
  .bss                    zero     0xe10acd64      0x4  main.o [1]
  .bss                    zero     0xe10acd68      0x4  main.o [1]
  .bss                    zero     0xe10acd6c      0x4  main.o [1]
  .bss                    zero     0xe10acd70      0x4  main.o [1]
  .bss                    zero     0xe10acd74      0x4  main.o [1]
  .bss                    zero     0xe10acd78      0x4  main.o [1]
  .bss                    zero     0xe10acd7c      0x4  main.o [1]
  .bss                    zero     0xe10acd80      0x4  main.o [1]
  .bss                    zero     0xe10acd84      0x4  main.o [1]
  .bss                    zero     0xe10acd88      0x4  main.o [1]
  .bss                    zero     0xe10acd8c      0x4  main.o [1]
  .bss                    zero     0xe10acd90      0x4  main.o [1]
  .bss                    zero     0xe10acd94      0x4  main.o [1]
  .bss                    zero     0xe10acd98      0x4  main.o [1]
  .bss                    zero     0xe10acd9c      0x4  main.o [1]
  .bss                    zero     0xe10acda0      0x4  main.o [1]
  .bss                    zero     0xe10acda4      0x4  main.o [1]
  .bss                    zero     0xe10acda8      0x4  main.o [1]
  .bss                    zero     0xe10acdac      0x4  main.o [1]
  .bss                    zero     0xe10acdb0      0x4  main.o [1]
  .bss                    zero     0xe10acdb4      0x4  main.o [1]
  .bss                    zero     0xe10acdb8      0x4  main.o [1]
  .bss                    zero     0xe10acdbc      0x4  main.o [1]
  .bss                    zero     0xe10acdc0      0x4  main.o [1]
  .bss                    zero     0xe10acdc4      0x4  main.o [1]
  .bss                    zero     0xe10acdc8      0x4  main.o [1]
  .bss                    zero     0xe10acdcc      0x4  main.o [1]
  .bss                    zero     0xe10acdd0      0x4  main.o [1]
  .bss                    zero     0xe10acdd4      0x4  main.o [1]
  .bss                    zero     0xe10acdd8      0x4  main.o [1]
  .bss                    zero     0xe10acddc      0x4  main.o [1]
  .bss                    zero     0xe10acde0      0x4  main.o [1]
  .bss                    zero     0xe10acde4      0x4  main.o [1]
  .bss                    zero     0xe10acde8      0x4  main.o [1]
  .bss                    zero     0xe10acdec      0x4  main.o [1]
  .bss                    zero     0xe10acdf0      0x4  main.o [1]
  .bss                    zero     0xe10acdf4      0x4  main.o [1]
  .bss                    zero     0xe10acdf8      0x4  main.o [1]
  .bss                    zero     0xe10acdfc      0x4  main.o [1]
  .bss                    zero     0xe10ace00      0x4  main.o [1]
  .bss                    zero     0xe10ace04      0x4  main.o [1]
  .bss                    zero     0xe10ace08      0x4  main.o [1]
  .bss                    zero     0xe10ace0c      0x4  main.o [1]
  .bss                    zero     0xe10ace10      0x4  main.o [1]
  .bss                    zero     0xe10ace14      0x4  main.o [1]
  .bss                    zero     0xe10ace18      0x4  main.o [1]
  .bss                    zero     0xe10ace1c      0x4  main.o [1]
  .bss                    zero     0xe10ace20      0x4  main.o [1]
  .bss                    zero     0xe10ace24      0x4  main.o [1]
  .bss                    zero     0xe10ace28      0x4  main.o [1]
  .bss                    zero     0xe10ace2c      0x4  main.o [1]
  .bss                    zero     0xe10ace30      0x4  main.o [1]
  .bss                    zero     0xe10ace34      0x4  main.o [1]
  .bss                    zero     0xe10ace38      0x4  MTZ1Component.o [1]
  .bss                    zero     0xe10ace3c      0x4  MTZ2Component.o [1]
  .bss                    zero     0xe10ace40      0x4  NZOP1Component.o [1]
  .bss                    zero     0xe10ace44      0x4  NZOP1Component.o [1]
  .bss                    zero     0xe10ace48      0x4  OFComponent.o [1]
  .bss                    zero     0xe10ace4c      0x4  OFComponent.o [1]
  .bss                    zero     0xe10ace50      0x4  periodOperations.o [1]
  .bss                    zero     0xe10ace54      0x4  periodOperations.o [1]
  .bss                    zero     0xe10ace58      0x4  periodOperations.o [1]
  .bss                    zero     0xe10ace5c      0x4  periodOperations.o [1]
  .bss                    zero     0xe10ace60      0x4  periodOperations.o [1]
  .bss                    zero     0xe10ace64      0x4  periodOperations.o [1]
  .bss                    zero     0xe10ace68      0x4  PFComponent.o [1]
  .bss                    zero     0xe10ace6c      0x4  PFComponent.o [1]
  .bss                    zero     0xe10ace70      0x4  PRM1Component.o [1]
  .bss                    zero     0xe10ace74      0x4  PRM1Component.o [1]
  .bss                    zero     0xe10ace78      0x4  PRM1Component.o [1]
  .bss                    zero     0xe10ace7c      0x4  PRM1Component.o [1]
  .bss                    zero     0xe10ace80      0x4  PRM1Component.o [1]
  .bss                    zero     0xe10ace84      0x4  PRM1Component.o [1]
  .bss                    zero     0xe10ace88      0x4  PRM1Component.o [1]
  .bss                    zero     0xe10ace8c      0x4  PRM1Component.o [1]
  .bss                    zero     0xe10ace90      0x4  psupervisor.o [1]
  .bss                    zero     0xe10ace94      0x4  psupervisor.o [1]
  .bss                    zero     0xe10ace98      0x4  psupervisor.o [1]
  .bss                    zero     0xe10ace9c      0x4  psupervisor.o [1]
  .bss                    zero     0xe10acea0      0x4  psupervisor.o [1]
  .bss                    zero     0xe10acea4      0x4  psupervisor.o [1]
  .bss                    zero     0xe10acea8      0x4  psupervisor.o [1]
  .bss                    zero     0xe10aceac      0x4  psupervisor.o [1]
  .bss                    zero     0xe10aceb0      0x4  psupervisor.o [1]
  .bss                    zero     0xe10aceb4      0x4  psupervisor.o [1]
  .bss                    zero     0xe10aceb8      0x4  psvisor_help.o [1]
  .bss                    zero     0xe10acebc      0x4  psvisor_help.o [1]
  .bss                    zero     0xe10acec0      0x4  SettingIci_data.o [1]
  .bss                    zero     0xe10acec4      0x4  SettingIci_data.o [1]
  .bss                    zero     0xe10acec8      0x4  SettingIci_data.o [1]
  .bss                    zero     0xe10acecc      0x4  SettingIci_data.o [1]
  .bss                    zero     0xe10aced0      0x4  SettingIci_data.o [1]
  .bss                    zero     0xe10aced4      0x4  SettingIci_data.o [1]
  .bss                    zero     0xe10aced8      0x4  SettingIci_data.o [1]
  .bss                    zero     0xe10acedc      0x4  SettingIci_data.o [1]
  .bss                    zero     0xe10acee0      0x4  SettingIci_data.o [1]
  .bss                    zero     0xe10acee4      0x4  SettingIci_data.o [1]
  .bss                    zero     0xe10acee8      0x4  SettingIci_data.o [1]
  .bss                    zero     0xe10aceec      0x4  SettingIci_data.o [1]
  .bss                    zero     0xe10acef0      0x4  SettingIci_data.o [1]
  .bss                    zero     0xe10acef4      0x4  SettingIci_data.o [1]
  .bss                    zero     0xe10acef8      0x4  SettingIci_data.o [1]
  .bss                    zero     0xe10acefc      0x4  SettingIci_data.o [1]
  .bss                    zero     0xe10acf00      0x4  SettingIci_data.o [1]
  .bss                    zero     0xe10acf04      0x4  SettingIci_data.o [1]
  .bss                    zero     0xe10acf08      0x4  SettingIci_data.o [1]
  .bss                    zero     0xe10acf0c      0x4  SettingIci_data.o [1]
  .bss                    zero     0xe10acf10      0x4  SettingIci_data.o [1]
  .bss                    zero     0xe10acf14      0x4  SettingIci_data.o [1]
  .bss                    zero     0xe10acf18      0x4  SettingIci_data.o [1]
  .bss                    zero     0xe10acf1c      0x4  SettingIci_data.o [1]
  .bss                    zero     0xe10acf20      0x4  SettingIci_data.o [1]
  .bss                    zero     0xe10acf24      0x4  SettingIci_data.o [1]
  .bss                    zero     0xe10acf28      0x4  SettingIci_data.o [1]
  .bss                    zero     0xe10acf2c      0x4  SettingIci_data.o [1]
  .bss                    zero     0xe10acf30      0x4  SettingIci_data.o [1]
  .bss                    zero     0xe10acf34      0x4  SettingIci_data.o [1]
  .bss                    zero     0xe10acf38      0x4  SettingIci_data.o [1]
  .bss                    zero     0xe10acf3c      0x4  SettingIci_data.o [1]
  .bss                    zero     0xe10acf40      0x4  SettingIci_data.o [1]
  .bss                    zero     0xe10acf44      0x4  SettingIci_data.o [1]
  .bss                    zero     0xe10acf48      0x4  SettingIci_data.o [1]
  .bss                    zero     0xe10acf4c      0x4  SettingIci_UMM.o [1]
  .bss                    zero     0xe10acf50      0x4  ssp1L.o [1]
  .bss                    zero     0xe10acf54      0x4  ssp1L.o [1]
  .bss                    zero     0xe10acf58      0x4  ssp1L.o [1]
  .bss                    zero     0xe10acf5c      0x4  ssp1L.o [1]
  .bss                    zero     0xe10acf60      0x4  ssp1L.o [1]
  .bss                    zero     0xe10acf64      0x4  ssp1L.o [1]
  .bss                    zero     0xe10acf68      0x4  ssp1L.o [1]
  .bss                    zero     0xe10acf6c      0x4  ssp1L.o [1]
  .bss                    zero     0xe10acf70      0x4  ssp1L.o [1]
  .bss                    zero     0xe10acf74      0x4  ssp1L.o [1]
  .bss                    zero     0xe10acf78      0x4  toSpeedDIS.o [1]
  .bss                    zero     0xe10acf7c      0x4  toSpeedDIS.o [1]
  .bss                    zero     0xe10acf80      0x4  toSpeedDIS.o [1]
  .bss                    zero     0xe10acf84      0x4  toSpeedDIS.o [1]
  .bss                    zero     0xe10acf88      0x4  toSpeedDIS.o [1]
  .bss                    zero     0xe10acf8c      0x4  toSpeedDIS.o [1]
  .bss                    zero     0xe10acf90      0x4  toSpeedDIS.o [1]
  .bss                    zero     0xe10acf94      0x4  toSpeedDIS.o [1]
  .bss                    zero     0xe10acf98      0x4  toSpeedDIS.o [1]
  .bss                    zero     0xe10acf9c      0x4  toSpeedDIS.o [1]
  .bss                    zero     0xe10acfa0      0x4  toSpeedDIS.o [1]
  .bss                    zero     0xe10acfa4      0x4  toSpeedDIS.o [1]
  .bss                    zero     0xe10acfa8      0x4  toSpeedDIS.o [1]
  .bss                    zero     0xe10acfac      0x4  toSpeedDIS.o [1]
  .bss                    zero     0xe10acfb0      0x4  toSpeedDIS.o [1]
  .bss                    zero     0xe10acfb4      0x4  toSpeedDIS.o [1]
  .bss                    zero     0xe10acfb8      0x4  toSpeedDIS.o [1]
  .bss                    zero     0xe10acfbc      0x4  toSpeedDIS.o [1]
  .bss                    zero     0xe10acfc0      0x4  toSpeedDIS.o [1]
  .bss                    zero     0xe10acfc4      0x4  toSpeedDIS.o [1]
  .bss                    zero     0xe10acfc8      0x4  toSpeedDIS.o [1]
  .bss                    zero     0xe10acfcc      0x4  toSpeedDIS.o [1]
  .bss                    zero     0xe10acfd0      0x4  toSpeedDIS.o [1]
  .bss                    zero     0xe10acfd4      0x4  toSpeedDIS.o [1]
  .bss                    zero     0xe10acfd8      0x4  toSpeedDIS.o [1]
  .bss                    zero     0xe10acfdc      0x4  toSpeedDIS.o [1]
  .bss                    zero     0xe10acfe0      0x4  toSpeedDIS.o [1]
  .bss                    zero     0xe10acfe4      0x4  toSpeedDIS.o [1]
  .bss                    zero     0xe10acfe8      0x4  toSpeedDIS.o [1]
  .bss                    zero     0xe10acfec      0x4  toSpeedDIS.o [1]
  .bss                    zero     0xe10acff0      0x4  toSpeedDIS.o [1]
  .bss                    zero     0xe10acff4      0x4  toSpeedDIS.o [1]
  .bss                    zero     0xe10acff8      0x4  toSpeedDIS.o [1]
  .bss                    zero     0xe10acffc      0x4  toSpeedDIS.o [1]
  .bss                    zero     0xe10ad000      0x4  toSpeedDIS.o [1]
  .bss                    zero     0xe10ad004      0x4  toSpeedDIS.o [1]
  .bss                    zero     0xe10ad008      0x4  toSpeedDIS.o [1]
  .bss                    zero     0xe10ad00c      0x4  toSpeedDIS.o [1]
  .bss                    zero     0xe10ad010      0x4  toSpeedDIS.o [1]
  .bss                    zero     0xe10ad014      0x4  toSpeedDIS.o [1]
  .bss                    zero     0xe10ad018      0x4  toSpeedDIS.o [1]
  .bss                    zero     0xe10ad01c      0x4  toSpeedDIS.o [1]
  .bss                    zero     0xe10ad020      0x4  toSpeedDIS.o [1]
  .bss                    zero     0xe10ad024      0x4  toSpeedDIS.o [1]
  .bss                    zero     0xe10ad028      0x4  toSpeedDIS.o [1]
  .bss                    zero     0xe10ad02c      0x4  toSpeedDIS.o [1]
  .bss                    zero     0xe10ad030      0x4  toSpeedDIS.o [1]
  .bss                    zero     0xe10ad034      0x4  toSpeedDIS.o [1]
  .bss                    zero     0xe10ad038      0x4  toSpeedDIS.o [1]
  .bss                    zero     0xe10ad03c      0x4  toSpeedDIS.o [1]
  .bss                    zero     0xe10ad040      0x4  toSpeedDIS.o [1]
  .bss                    zero     0xe10ad044      0x4  toSpeedDIS.o [1]
  .bss                    zero     0xe10ad048      0x4  toSpeedDIS.o [1]
  .bss                    zero     0xe10ad04c      0x4  toSpeedDIS.o [1]
  .bss                    zero     0xe10ad050      0x4  toSpeedDIS.o [1]
  .bss                    zero     0xe10ad054      0x4  toSpeedDIS.o [1]
  .bss                    zero     0xe10ad058      0x4  toSpeedDIS.o [1]
  .bss                    zero     0xe10ad05c      0x4  toSpeedDIS.o [1]
  .bss                    zero     0xe10ad060      0x4  toSpeedDIS.o [1]
  .bss                    zero     0xe10ad064      0x4  toSpeedDIS.o [1]
  .bss                    zero     0xe10ad068      0x4  toSpeedDIS.o [1]
  .bss                    zero     0xe10ad06c      0x4  toSpeedDIS.o [1]
  .bss                    zero     0xe10ad070      0x4  toSpeedDIS.o [1]
  .bss                    zero     0xe10ad074      0x4  toSpeedDIS.o [1]
  .bss                    zero     0xe10ad078      0x4  toSpeedDIS.o [1]
  .bss                    zero     0xe10ad07c      0x4  toSpeedDIS.o [1]
  .bss                    zero     0xe10ad080      0x4  toSpeedDIS.o [1]
  .bss                    zero     0xe10ad084      0x4  toSpeedDIS.o [1]
  .bss                    zero     0xe10ad088      0x4  toSpeedDIS.o [1]
  .bss                    zero     0xe10ad08c      0x4  toSpeedDIS.o [1]
  .bss                    zero     0xe10ad090      0x4  toSpeedDIS.o [1]
  .bss                    zero     0xe10ad094      0x4  toSpeedDIS.o [1]
  .bss                    zero     0xe10ad098      0x4  toSpeedDIS.o [1]
  .bss                    zero     0xe10ad09c      0x4  toSpeedDIS.o [1]
  .bss                    zero     0xe10ad0a0      0x4  toSpeedDIS.o [1]
  .bss                    zero     0xe10ad0a4      0x4  toSpeedDIS.o [1]
  .bss                    zero     0xe10ad0a8      0x4  toSpeedDIS.o [1]
  .bss                    zero     0xe10ad0ac      0x4  toSpeedDIS.o [1]
  .bss                    zero     0xe10ad0b0      0x4  toSpeedDIS.o [1]
  .bss                    zero     0xe10ad0b4      0x4  toSpeedDIS.o [1]
  .bss                    zero     0xe10ad0b8      0x4  toSpeedDIS.o [1]
  .bss                    zero     0xe10ad0bc      0x4  toSpeedDIS.o [1]
  .bss                    zero     0xe10ad0c0      0x4  toSpeedDIS.o [1]
  .bss                    zero     0xe10ad0c4      0x4  toSpeedDIS.o [1]
  .bss                    zero     0xe10ad0c8      0x4  translateI.o [1]
  .bss                    zero     0xe10ad0cc      0x4  translateI.o [1]
  .bss                    zero     0xe10ad0d0      0x4  translateI.o [1]
  .bss                    zero     0xe10ad0d4      0x4  translateI.o [1]
  .bss                    zero     0xe10ad0d8      0x4  translateI.o [1]
  .bss                    zero     0xe10ad0dc      0x4  translateI.o [1]
  .bss                    zero     0xe10ad0e0      0x4  translateI.o [1]
  .bss                    zero     0xe10ad0e4      0x4  TZNP1Component.o [1]
  .bss                    zero     0xe10ad0e8      0x4  u3.o [1]
  .bss                    zero     0xe10ad0ec      0x4  UMMComponent.o [1]
  .bss                    zero     0xe10ad0f0      0x4  UROVComponent.o [1]
  .bss                    zero     0xe10ad0f4      0x4  ViewMenuRang.o [1]
  .bss                    zero     0xe10ad0f8      0x4  ViewMenuRang.o [1]
  .bss                    zero     0xe10ad0fc      0x4  ViewMenuRang.o [1]
  .bss                    zero     0xe10ad100      0x4  widelogmanager.o [1]
  .bss                    zero     0xe10ad104      0x4  WLComponent.o [1]
  .bss                    zero     0xe10ad108      0x4  WLComponent.o [1]
  .bss                    zero     0xe10ad10c      0x2  callBackElement.o [1]
  .bss                    zero     0xe10ad10e      0x2  callBackElement.o [1]
  .bss                    zero     0xe10ad110      0x2  JLINKDCC_Process.o [1]
  .bss                    zero     0xe10ad112      0x2  JLINKDCC_Process.o [1]
  .bss                    zero     0xe10ad114      0x2  JLINKDCC_Process.o [1]
  .bss                    zero     0xe10ad116      0x2  lpu.o [1]
  .bss                    zero     0xe10ad118      0x1  AppCn.o [1]
  .bss                    zero     0xe10ad119      0x1  br_var.o [1]
  .bss                    zero     0xe10ad11a      0x1  hu2.o [1]
  .bss                    zero     0xe10ad11b      0x1  hu2l.o [1]
  .bss                    zero     0xe10ad11c      0x1  ici_api.o [1]
  .bss                    zero     0xe10ad11d      0x1  ici_api.o [1]
  .bss                    zero     0xe10ad11e      0x1  ici_api.o [1]
  .bss                    zero     0xe10ad11f      0x1  ici_api.o [1]
  .bss                    zero     0xe10ad120      0x1  ici_api.o [1]
  .bss                    zero     0xe10ad121      0x1  ici_api.o [1]
  .bss                    zero     0xe10ad122      0x1  ici_api.o [1]
  .bss                    zero     0xe10ad123      0x1  ici_api.o [1]
  .bss                    zero     0xe10ad124      0x1  JLINKDCC_Process.o [1]
  .bss                    zero     0xe10ad125      0x1  JLINKDCC_Process.o [1]
  .bss                    zero     0xe10ad126      0x1  JLINKDCC_Process.o [1]
  .bss                    zero     0xe10ad127      0x1  JLINKDCC_Process.o [1]
  .bss                    zero     0xe10ad128      0x1  JLINKDCC_Process.o [1]
  .bss                    zero     0xe10ad129      0x1  lpu.o [1]
  .bss                    zero     0xe10ad12a      0x1  lpu.o [1]
  .bss                    zero     0xe10ad12b      0x1  SettingIci_data.o [1]
  .bss                    zero     0xe10ad12c      0x1  SettingIci_data.o [1]
  .bss                    zero     0xe10ad12d      0x1  ssp1.o [1]
  .bss                    zero     0xe10ad12e      0x1  ssp1.o [1]
  .noinit                 uninit   0xe10ad130      0x4  main.o [1]
  CSTACK                           0xe10ad138   0x2000  <Block>
    CSTACK                uninit   0xe10ad138   0x2000  <Block tail>
  SVC_STACK                        0xe10af138     0x40  <Block>
    SVC_STACK             uninit   0xe10af138     0x40  <Block tail>
  IRQ_STACK                        0xe10af178    0x100  <Block>
    IRQ_STACK             uninit   0xe10af178    0x100  <Block tail>
  FIQ_STACK                        0xe10af278     0x40  <Block>
    FIQ_STACK             uninit   0xe10af278     0x40  <Block tail>
  UND_STACK                        0xe10af2b8     0x40  <Block>
    UND_STACK             uninit   0xe10af2b8     0x40  <Block tail>
  ABT_STACK                        0xe10af2f8     0x40  <Block>
    ABT_STACK             uninit   0xe10af2f8     0x40  <Block tail>
                                 - 0xe10af338  0x2f338

"P4":                                            0x640
  DMA_BUFFERS             zero     0xe10ff000    0x320  ssp1L.o [1]
  DMA_BUFFERS             zero     0xe10ff320    0x320  ssp1L.o [1]
                                 - 0xe10ff640    0x640


*******************************************************************************
*** INIT TABLE
***

          Address     Size
          -------     ----
Zero (__iar_zero_init3)
    2 destination ranges, total size 0x27b0f:
          0xe1085c60  0x274cf
          0xe10ff000    0x640

Copy/lz77 (__iar_lz77_init3)
    1 source range, total size 0x7fd5 (43% of destination):
          0xe1045f97   0x7fd5
    1 destination range, total size 0x122a0:
          0xe1032cf0  0x122a0

Copy/lz77 (__iar_lz77_init3)
    1 source range, total size 0x1007 (17% of destination):
          0xe1044f90   0x1007
    1 destination range, total size 0x5c60:
          0xe1080000   0x5c60

Copy/lz77 (__iar_lz77_init3)
    1 source range, total size 0x369 (60% of destination):
          0xe104df6c    0x369
    1 destination range, total size 0x5a8:
          0xe107f000    0x5a8



*******************************************************************************
*** MODULE SUMMARY
***

    Module                      ro code  rw code  ro data  rw data  rw data
                                                                     (abs)
    ------                      -------  -------  -------  -------  -------
D:\Program Files\IAR Systems\MYWORK\HR1_0100_00_I720_new2\EWP\Debug xRAM\Obj: [1]
    APVComponent.o                3 964               540      392
    AppCn.o                      13 500    3 404    3 264   11 757
    CTpu.o                          336    4 508    2 194    1 956
    DZ1Component.o                3 452               218      276
    DZ2Component.o                4 776               188      232
    DZ3Component.o                  856               323      336
    DZ4Component.o                  944               397      396
    DZ5Component.o                  976               395      396
    DZPacket.o                      752                26      168
    FLogTimer.o                              380      167
    FLogTimerRES.o                           212       93
    ILogTimer.o                              388      171
    ILogTimerRES.o                           216       95
    JLINKDCC_Process.o            1 420                      1 067
    MTZ1Component.o               3 024               520      436
    MTZ2Component.o               3 684               486      460
    MTZ3Component.o               1 052               499      456
    MTZ4Component.o                 992               499      456
    MTZ5Component.o               1 052               499      456
    MTZPacket.o                     752                35      168
    NZOP1Component.o              2 748               476      420
    NZOP2Component.o                984               397      376
    NZOPPacket.o                    600                30      120
    OFComponent.o                 5 596             1 228      624
    PFComponent.o                   440               234      244
    PRM1Component.o               5 880               472      592
    ResetSystemMenu.o             1 940               629    1 424
    SettingIci_APV.o              3 016
    SettingIci_DZ1.o                980
    SettingIci_DZ2to5.o           6 944
    SettingIci_MTZ.o              6 696
    SettingIci_NZOP.o             1 020
    SettingIci_OF.o               3 364
    SettingIci_OFDZ.o             2 980
    SettingIci_OFMTZ.o            2 404
    SettingIci_OFTZNP.o           2 788
    SettingIci_OFUMM.o              868
    SettingIci_PRM1.o               208
    SettingIci_Rangir.o           1 268
    SettingIci_RangirAPV.o          272
    SettingIci_RangirDZ.o         2 720
    SettingIci_RangirMTZ.o        3 744
    SettingIci_RangirNZOP.o         800
    SettingIci_RangirOF.o         1 568
    SettingIci_RangirPRM1.o         176
    SettingIci_RangirTZNP.o       2 672
    SettingIci_RangirUMM.o        1 104
    SettingIci_RangirUROV.o         224
    SettingIci_TZNP.o             4 904
    SettingIci_UMM.o              1 264                          4
    SettingIci_UROV.o             2 552
    SettingIci_data.o             3 068                      1 002
    TZNP1Component.o              2 904               466      428
    TZNP2Component.o              1 008               459      408
    TZNP3Component.o                944               458      408
    TZNP4Component.o                944               460      408
    TZNP5Component.o                944               459      408
    TZNPPacket.o                    768                38      168
    TxtStream.o                     612
    UMMComponent.o                2 636               464      444
    UROVComponent.o               2 064               219      296
    ViewMenuCnf.o                   828                12       68
    ViewMenuRang.o                1 108                16       12
    ViewMenuReg.o                   776                32
    ViewMenuWideLog.o               252                56
    ViewRepozit.o                   696               214    1 308
    ViewRepozitWL.o                 744                66      288
    WLComponent.o                   784               117      152
    arm926ej_cp15_drv.o           1 380
    board_lowlevel.o                696                                 152
    br_var.o                                                 8 993
    callBackElement.o               252                        100
    cicloGrammaEEPROM1.o                                        16
    cstartup.o                      292
    cy7.o                                    236      104
    getINTERFACE.o                           500      220
    hu2.o                                                        9
    hu2l.o                          216    1 248      549    1 065
    hu7l.o                           40      340      142      532
    ici_api.o                       104      932      410   18 440
    isNewZonaMethodVRT.o         10 168                 7    3 320
    isZonaTrianMethodVRT.o        3 564                        400
    logicAPV.o                             3 836    1 687
    logicDZ1.o                             1 184      521
    logicDZ2to5.o                          6 588    2 897
    logicMTZ1.o                            1 888      831
    logicMTZ2to5.o                         2 896    1 273
    logicNZOP1to2.o                          620      272
    logicOF.o                              3 332    1 466
    logicPF.o                                  4        2
    logicPRM1.o                              300      132
    logicTZNP1to5.o                        1 624      714
    logicUMM.o                    3 048
    logicUROV.o                              472      208
    logicWL.o                                 20        9
    logictimers.o                    88    1 064      468   16 012
    lpc32xx_clkpwr_driver.o       2 952                11       68
    lpc32xx_gpio_driver.o            60
    lpc32xx_intc_driver.o         1 168                        388
    lpc32xx_vectors.o               464
    lpcAV1_dma_driver.o             776                         76
    lpcAV1_hsuart_driver.o        1 204      136       60
    lpcAV1_intc_driver.o          1 104
    lpcAV1_ssp_driver.o           1 680                 2       48
    lpcAV1_timer_driver.o           528                 4       32
    lpc_arm922t_cp15_driver.o        88
    lpu.o                         2 204    2 856    1 368    2 936
    main.o                          672                 6    1 800
    missionCollectionEEPROM1.o    1 140                12
    partial_vfp.o                   248
    periodOperations.o            1 888                 1       28
    psupervisor.o                 5 292                     36 796
    psvisor_help.o                1 700                        148
    rangmanager.o                 2 288                     28 452
    ssp1.o                          636                 1        6
    ssp1L.o                          40    2 272    1 245    1 740
    start_settings.o                292
    systemMenu.o                  3 884                80      628
    toSpeedDIS.o                           4 892    2 152    8 272
    toSpeedOptim.o                        25 268   11 114
    toSpeedZonaVRT.o                       2 748    1 209
    translateI.o                           1 512      665      188
    ttbl.o                                            292   18 432
    u3.o                            444                          4
    ustavkitoEEPROM.o               140
    ustmanager.o                  1 288                     10 828
    viewMenuList.o                    4
    viewMenuSub.o                   224
    widelogmanager.o                220                     15 860
    -----------------------------------------------------------------------
    Total:                      187 812   75 876   47 745  204 627      152

command line: [2]
    -----------------------------------------------------------------------
    Total:

dl5E_aln.a: [3]
    abort.o                           8
    div.o                            52
    errno.o                          12                 1        4
    exit.o                            4
    low_level_init.o                  8
    sprintf.o                        88
    strcat.o                         48
    xprintffull.o                 5 694
    xsprout.o                        20
    xtls.o                            4
    -----------------------------------------------------------------------
    Total:                        5 938                 1        4

m5E_alv.a: [4]
    DblCmpGe.o                       56
    DblCmpLe.o                       56
    DblSub.o                         20
    DblToS32.o                       16
    DblToS64.o                      184
    DblToU32.o                       16
    S32ToDbl.o                       16
    acos.o                          128
    asin.o                          152
    ceil.o                          148
    fpinit.o                         20
    sqrt.o                           32
    xatan.o                         288
    xdnorm.o                        120
    xdscale.o                       476
    -----------------------------------------------------------------------
    Total:                        1 728

rt5E_al.a: [5]
    ABImemclr4.o                      8
    ABImemcpy.o                     212
    ABImemset.o                     120
    ABImemset48.o                    56
    I32DivMod.o                     424
    I64DivMod.o                     304
    I64DivZer.o                       4
    IntDivZer.o                       4
    XXexit.o                         20
    cexit.o                          16
    cmain.o                          44
    data_init.o                      40
    iarEdom.o                        20
    lz77_init.o                     446
    memchr.o                        148
    memcmp.o                        116
    strchr.o                         32
    strcpy.o                        104
    strlen.o                         84
    strncpy.o                       152
    uread4.o                         32
    zero_init3.o                     60
    -----------------------------------------------------------------------
    Total:                        2 446

    Gaps                              2                 4    1 025
    Linker created                                    109    8 704
---------------------------------------------------------------------------
    Grand Total:                197 926   75 876   47 859  214 360      152


*******************************************************************************
*** ENTRY LIST
***

Entry                      Address    Size  Type      Object
-----                      -------    ----  ----      ------
.iar.init_table$$Base   0xe1030720           --   Gb  - Linker created -
.iar.init_table$$Limit  0xe103078c           --   Gb  - Linker created -
?main                   0xe1030618          Code  Gb  cmain.o [5]
ABT_STACK$$Base         0xe10af2f8           --   Gb  - Linker created -
ABT_STACK$$Limit        0xe10af338           --   Gb  - Linker created -
APV_TITLE               0xe1085b7c     0x4  Data  Gb  APVComponent.o [1]
ActivatePrtTblPrMng     0xe10011dc    0x58  Code  Gb  AppCn.o [1]
ActivatePrtTblRvPrTpt   0xe1001f28    0x7c  Code  Gb  AppCn.o [1]
ActivatePrtTblTrPrTpt   0xe1001fa8    0x78  Code  Gb  AppCn.o [1]
ActivateRVProxyTenPerSamplesCTpuUnit
                        0xe1000208    0xec  Code  Gb  AppCn.o [1]
ActivateRVProxyTotMeasCTpuUnit
                        0xe1000830    0xec  Code  Gb  AppCn.o [1]
ActivateServTrApCnAuxStngCTpuUnit
                        0xe1003444    0x44  Code  Gb  AppCn.o [1]
ActivateServTrApCnDiagnCTpuUnitSPI
                        0xe100298c    0x68  Code  Gb  AppCn.o [1]
ActivateServTrApCnPrtTblTptUnitSpi
                        0xe100185c    0x7c  Code  Gb  AppCn.o [1]
ActivateServTrApCnSamplesCTpuUnitHSU2
                        0xe10035bc    0x7c  Code  Gb  CTpu.o [1]
ActivateServTrApCnTeleMechsCTpuUnitSpi
                        0xe10027e8    0xc0  Code  Gb  AppCn.o [1]
ActivateServTrApCnTenPerSamplesUnitHSU2
                        0xe10002f4    0x7c  Code  Gb  AppCn.o [1]
ActivateServTrApCnTotMeasUnitHSU2
                        0xe100091c    0x7c  Code  Gb  AppCn.o [1]
ActivateServTrApCnTotVerInfoCTpuUnitSPI
                        0xe1002ab0    0xb4  Code  Gb  AppCn.o [1]
ActualDVList            0xe100a024    0x54  Code  Gb  systemMenu.o [1]
ActualRegList           0xe100a000    0x24  Code  Gb  systemMenu.o [1]
ActualReleList          0xe100a078    0x4c  Code  Gb  systemMenu.o [1]
AddCompIzRpz            0xe1009c04    0x6c  Code  Gb  systemMenu.o [1]
AddCompIzRpz_WL         0xe100aee8    0x6c  Code  Gb  ViewMenuWideLog.o [1]
AlgPrtTblWriteEct       0xe1002100   0x1e4  Code  Gb  AppCn.o [1]
AllComponentUstTimers   0xe1009cfc    0x14  Code  Gb  systemMenu.o [1]
AllComponentUstTimers_WL
                        0xe1009d10    0x14  Code  Gb  systemMenu.o [1]
AppReqReceiveAtrCmd     0xe10acc68     0x4  Data  Gb  AppCn.o [1]
AppReqReceiveDateTime   0xe10acc6c     0x4  Data  Gb  AppCn.o [1]
AppReqReceiveFCoil      0xe10acc64     0x4  Data  Gb  AppCn.o [1]
AppReqReceiveGoosA      0xe10acc50     0x4  Data  Gb  AppCn.o [1]
AppReqReceiveGoosB      0xe10acc54     0x4  Data  Gb  AppCn.o [1]
AppReqReceiveTotMeasR   0xe10acc3c     0x4  Data  Gb  AppCn.o [1]
AppReqTransmitApcs      0xe10acc40     0x4  Data  Gb  AppCn.o [1]
AppReqTransmitAuxStng   0xe10acc74     0x4  Data  Gb  AppCn.o [1]
AppReqTransmitDiagnBrBs
                        0xe10acc5c     0x4  Data  Gb  AppCn.o [1]
AppReqTransmitGoosA     0xe10acc4c     0x4  Data  Gb  AppCn.o [1]
AppReqTransmitTeleMechs
                        0xe10acc58     0x4  Data  Gb  AppCn.o [1]
AppReqTransmitTotVerInfoBrBs
                        0xe10acc60     0x4  Data  Gb  AppCn.o [1]
ApplyDVMaskToRead       0xe100ed04    0xd8  Code  Gb  widelogmanager.o [1]
ArrayRANGIR             0xe10a331c   0xa54  Data  Gb  rangmanager.o [1]
ArrayWIDELOG            0xe1094bcc  0x3c00  Data  Gb  widelogmanager.o [1]
AsemblyLDC              0xe103d6d8   0x148  Code  Gb  CTpu.o [1]
Build_cbMission_1BWRITE_MASSIV
                        0xe101f7a0    0x84  Code  Gb  missionCollectionEEPROM1.o [1]
CDITrigger              0xe10ace88     0x4  Data  Gb  PRM1Component.o [1]
CP15_Cache              0xe100db54    0x3c  Code  Gb  arm926ej_cp15_drv.o [1]
CP15_GetStatus          0xe100d68c     0x8  Code  Gb  arm926ej_cp15_drv.o [1]
CP15_InitMmuTtb         0xe100d6f4   0x42c  Code  Gb  arm926ej_cp15_drv.o [1]
CP15_InvalAllCache      0xe100d69c    0x14  Code  Gb  arm926ej_cp15_drv.o [1]
CP15_InvalAllTbl        0xe100d6b0    0x14  Code  Gb  arm926ej_cp15_drv.o [1]
CP15_Mmu                0xe100db20    0x34  Code  Gb  arm926ej_cp15_drv.o [1]
CP15_RomProt            0xe100dbc0    0x30  Code  Gb  arm926ej_cp15_drv.o [1]
CP15_SetDomain          0xe100d694     0x8  Code  Gb  arm926ej_cp15_drv.o [1]
CP15_SetMmu             0xe100d6c4    0x18  Code  Gb  arm926ej_cp15_drv.o [1]
CP15_SetTtb             0xe100d6dc    0x18  Code  Gb  arm926ej_cp15_drv.o [1]
CP15_SysProt            0xe100db90    0x30  Code  Gb  arm926ej_cp15_drv.o [1]
CSTACK$$Base            0xe10ad138           --   Gb  - Linker created -
CSTACK$$Limit           0xe10af138           --   Gb  - Linker created -
CY7_rv_cb               0xe1044e8c    0xd4  Code  Gb  cy7.o [1]
CheckActualCMD          0xe103309c    0xe0  Code  Gb  toSpeedOptim.o [1]
CheckActualCMDInv       0xe103317c    0xe0  Code  Gb  toSpeedOptim.o [1]
CheckGoosBHldCs         0xe10027b4    0x34  Code  Gb  AppCn.o [1]
CheckedQuadro           0xe1008afc    0x64  Code  Gb  psvisor_help.o [1]
ClearArrayRANGIR        0xe100a9ec    0x24  Code  Gb  rangmanager.o [1]
CommonMeasureLogic      0xe1033348   0x214  Code  Gb  toSpeedOptim.o [1]
CompressorToActualCMD   0xe1032e30    0x64  Code  Gb  toSpeedOptim.o [1]
CompressorToQuadro      0xe1032dd4    0x5c  Code  Gb  toSpeedOptim.o [1]
ConfigMaker             0xe1008fc4     0x4  Code  Gb  ViewMenuCnf.o [1]
ConfigMakerWL           0xe100aee4     0x4  Code  Gb  ViewMenuWideLog.o [1]
CopyMngUstavki          0xe100b400    0x30  Code  Gb  ustmanager.o [1]
CopyWideENAToENAcmd     0xe1008ce0    0x6c  Code  Gb  psvisor_help.o [1]
CopyWideENAToENAcmd_WL  0xe1008d4c    0x6c  Code  Gb  psvisor_help.o [1]
CtrlSendPrtTblEct       0xe1001c78    0x88  Code  Gb  AppCn.o [1]
DZ1_TITLE               0xe1085c14     0x4  Data  Gb  DZ1Component.o [1]
DZ2_TITLE               0xe1085c18     0x4  Data  Gb  DZ2Component.o [1]
DZ3_TITLE               0xe1085c1c     0x4  Data  Gb  DZ3Component.o [1]
DZ4_TITLE               0xe1085c20     0x4  Data  Gb  DZ4Component.o [1]
DZ5_TITLE               0xe1085c24     0x4  Data  Gb  DZ5Component.o [1]
DeleteComponent1        0xe1009bfc     0x4  Code  Gb  systemMenu.o [1]
DeleteComponent1_WL     0xe1009c00     0x4  Code  Gb  systemMenu.o [1]
DiskrRegList            0xe1009d24    0x24  Code  Gb  systemMenu.o [1]
DiskretRegWorking       0xe103c880   0x1f8  Code  Gb  toSpeedDIS.o [1]
Dma_alloc_channel       0xe1013c0c   0x10c  Code  Gb  lpcAV1_dma_driver.o [1]
Dma_get_base            0xe1013d18     0xc  Code  Gb  lpcAV1_dma_driver.o [1]
Dma_init                0xe1013ae8   0x124  Code  Gb  lpcAV1_dma_driver.o [1]
Dma_interrupt           0xe1013a20    0xc8  Code  Gb  lpcAV1_dma_driver.o [1]
DpcsPrtTblPrMngMsg      0xe1001d00    0xb0  Code  Gb  AppCn.o [1]
ENAcmd                  0xe10a9150   0x320  Data  Gb  psupervisor.o [1]
ENAcmd_WL               0xe10ab5d8    0xc8  Data  Gb  psupervisor.o [1]
EXEOutputCmd            0xe10ac18c    0x50  Data  Gb  widelogmanager.o [1]
EXElogicCOMPONENT       0xe1032cf0    0x6c  Code  Gb  toSpeedOptim.o [1]
EXElogicCOMPONENT_WL    0xe1032d5c    0x78  Code  Gb  toSpeedOptim.o [1]
EditUprAPV              0xe1024be8    0x7c  Code  Gb  APVComponent.o [1]
EditUprDZ4              0xe102d768    0x34  Code  Gb  DZ4Component.o [1]
EditUprMTZ1             0xe10269f0    0x64  Code  Gb  MTZ1Component.o [1]
EditUprMTZ2             0xe1025aa8    0x64  Code  Gb  MTZ2Component.o [1]
EditUprMTZ3             0xe102bfb8    0x64  Code  Gb  MTZ3Component.o [1]
EditUprMTZ4             0xe102cbe0    0x64  Code  Gb  MTZ4Component.o [1]
EditUprMTZ5             0xe102c3d4    0x64  Code  Gb  MTZ5Component.o [1]
EditUprNZOP1            0xe1029a7c    0x34  Code  Gb  NZOP1Component.o [1]
EditUprNZOP2            0xe102cfe8    0x34  Code  Gb  NZOP2Component.o [1]
EditUprPRM1             0xe101ff90    0x34  Code  Gb  PRM1Component.o [1]
EditUprTZNP1            0xe1028efc    0x34  Code  Gb  TZNP1Component.o [1]
EditUprTZNP2            0xe102c7f0    0x34  Code  Gb  TZNP2Component.o [1]
EditUprTZNP3            0xe102db18    0x34  Code  Gb  TZNP3Component.o [1]
EditUprTZNP4            0xe102dec8    0x34  Code  Gb  TZNP4Component.o [1]
EditUprTZNP5            0xe102e278    0x34  Code  Gb  TZNP5Component.o [1]
EditUprUROV             0xe102b040    0x34  Code  Gb  UROVComponent.o [1]
EditUstAPV              0xe1024a10    0x10  Code  Gb  APVComponent.o [1]
EditUstDZ3              0xe102e50c    0x10  Code  Gb  DZ3Component.o [1]
EditUstDZ4              0xe102d64c    0x10  Code  Gb  DZ4Component.o [1]
EditUstDZ5              0xe102d27c    0x10  Code  Gb  DZ5Component.o [1]
EditUstMTZ1             0xe10267f0    0x10  Code  Gb  MTZ1Component.o [1]
EditUstMTZ2             0xe102598c    0x10  Code  Gb  MTZ2Component.o [1]
EditUstMTZ3             0xe102be9c    0x10  Code  Gb  MTZ3Component.o [1]
EditUstMTZ4             0xe102cac4    0x10  Code  Gb  MTZ4Component.o [1]
EditUstMTZ5             0xe102c2b8    0x10  Code  Gb  MTZ5Component.o [1]
EditUstNZOP1            0xe102987c    0x10  Code  Gb  NZOP1Component.o [1]
EditUstNZOP2            0xe102cea4    0x10  Code  Gb  NZOP2Component.o [1]
EditUstPRM1             0xe101fcec    0x10  Code  Gb  PRM1Component.o [1]
EditUstTZNP1            0xe1028d24    0x10  Code  Gb  TZNP1Component.o [1]
EditUstTZNP2            0xe102c6d4    0x10  Code  Gb  TZNP2Component.o [1]
EditUstTZNP3            0xe102d9fc    0x10  Code  Gb  TZNP3Component.o [1]
EditUstTZNP4            0xe102ddac    0x10  Code  Gb  TZNP4Component.o [1]
EditUstTZNP5            0xe102e15c    0x10  Code  Gb  TZNP5Component.o [1]
EditUstUMM              0xe102a338    0x10  Code  Gb  UMMComponent.o [1]
EditUstUROV             0xe102ad84    0x10  Code  Gb  UROVComponent.o [1]
EditVidMTZ1             0xe102694c    0x10  Code  Gb  MTZ1Component.o [1]
EditVidNZOP1            0xe10299d8    0x10  Code  Gb  NZOP1Component.o [1]
EditVidNZOP2            0xe102cf44    0x10  Code  Gb  NZOP2Component.o [1]
EditVidPRM1             0xe101fea8    0x10  Code  Gb  PRM1Component.o [1]
EditVidUMM              0xe102a494    0x10  Code  Gb  UMMComponent.o [1]
EditVidUROV             0xe102aee0    0x10  Code  Gb  UROVComponent.o [1]
Eval_CS                 0xe103fdf0    0x34  Code  Gb  lpu.o [1]
ExecCmdProxyTenPerSamples
                        0xe10005a8   0x288  Code  Gb  AppCn.o [1]
ExecCmdProxyTotMeas     0xe1000bd4   0x240  Code  Gb  AppCn.o [1]
ExecCmdPrtTblPrTpt      0xe10012fc   0x38c  Code  Gb  AppCn.o [1]
ExecExistProxy          0xe103f6a4    0xd8  Code  Gb  AppCn.o [1]
ExecExistProxyManager   0xe103f5cc    0xd8  Code  Gb  AppCn.o [1]
ExecProxy               0xe103f77c    0x50  Code  Gb  AppCn.o [1]
ExecPrtTblCmdPrMng      0xe1001db4   0x164  Code  Gb  AppCn.o [1]
ExtractLdc              0xe103dc18    0x70  Code  Gb  CTpu.o [1]
FIQ_STACK$$Base         0xe10af278           --   Gb  - Linker created -
FIQ_STACK$$Limit        0xe10af2b8           --   Gb  - Linker created -
FLogTimer               0xe103b41c    0xb0  Code  Gb  FLogTimer.o [1]
FLogTimerRES            0xe103ce60    0xd4  Code  Gb  FLogTimerRES.o [1]
FLogTimer_WL            0xe103b4cc    0xb0  Code  Gb  FLogTimer.o [1]
FullStepWorkEEPROM      0xe101f824    0x44  Code  Gb  missionCollectionEEPROM1.o [1]
GetAddrPFL_VL           0xe103dee4    0xdc  Code  Gb  CTpu.o [1]
GetCmdUVVFromClon       0xe100accc    0x8c  Code  Gb  rangmanager.o [1]
GetFld_TpState_CNL      0xe103e014    0x78  Code  Gb  CTpu.o [1]
GetFromLinToClonCnf     0xe1008fcc     0xc  Code  Gb  ViewMenuCnf.o [1]
GetFromLinToClonCnf_WL  0xe1008fd8     0xc  Code  Gb  ViewMenuCnf.o [1]
GetFromLinToClonPkt     0xe1008fe4     0xc  Code  Gb  ViewMenuCnf.o [1]
GetInState              0xe104485c    0x74  Code  Gb  getINTERFACE.o [1]
GetLedState             0xe1044924    0x54  Code  Gb  getINTERFACE.o [1]
GetLpduAddr             0xe103d930    0x6c  Code  Gb  CTpu.o [1]
GetMeasPrt              0xe1001158    0x70  Code  Gb  AppCn.o [1]
GetOffsetClonRpz        0xe100f018    0x60  Code  Gb  ViewRepozit.o [1]
GetOffsetClonRpzWL      0xe100f300    0x60  Code  Gb  ViewRepozitWL.o [1]
GetOutState             0xe10448d0    0x54  Code  Gb  getINTERFACE.o [1]
GetRVStateLpuCnl        0xe103d820   0x110  Code  Gb  CTpu.o [1]
GetStateCnlTpCn         0xe103d00c   0x100  Code  Gb  CTpu.o [1]
GetTrgLedState          0xe10449cc    0x54  Code  Gb  getINTERFACE.o [1]
GetTrgOutState          0xe1044978    0x54  Code  Gb  getINTERFACE.o [1]
GlobalLevelI_ABC        0xe1085b44     0xc  Data  Gb  main.o [1]
GlobalLevelUF_ABC       0xe1085b5c     0xc  Data  Gb  main.o [1]
GlobalLevelUL_ABC       0xe1085b50     0xc  Data  Gb  main.o [1]
GlobalLevel_3I0         0xe10acd90     0x4  Data  Gb  main.o [1]
GlobalLevel_3U0         0xe10acd94     0x4  Data  Gb  main.o [1]
GlobalLevel_ICM         0xe10acd88     0x4  Data  Gb  main.o [1]
GlobalLevel_UCM         0xe10acd84     0x4  Data  Gb  main.o [1]
GlobalLevel_ULAPV       0xe10acd8c     0x4  Data  Gb  main.o [1]
GlobalPO1               0xe10acd70     0x4  Data  Gb  main.o [1]
GlobalPO2               0xe10acd74     0x4  Data  Gb  main.o [1]
GlobalPO3               0xe10acd78     0x4  Data  Gb  main.o [1]
GlobalPO4               0xe10acd7c     0x4  Data  Gb  main.o [1]
GruppaUst               0xe10ace8c     0x4  Data  Gb  PRM1Component.o [1]
HalfStepWorkEEPROM_Begin
                        0xe101f948    0x34  Code  Gb  missionCollectionEEPROM1.o [1]
HalfStepWorkEEPROM_Ending
                        0xe101f97c    0x14  Code  Gb  missionCollectionEEPROM1.o [1]
HalfStepWorkEEPROM_Middle
                        0xe101f868    0xe0  Code  Gb  missionCollectionEEPROM1.o [1]
ILogTimer               0xe103b9c0    0xb4  Code  Gb  ILogTimer.o [1]
ILogTimerRES            0xe103efcc    0xd8  Code  Gb  ILogTimerRES.o [1]
ILogTimer_WL            0xe103ba74    0xb4  Code  Gb  ILogTimer.o [1]
INITENACmdCOMPONENT     0xe100bd34    0xa0  Code  Gb  psupervisor.o [1]
INITENACmdCOMPONENT_WL  0xe100bdd4    0xa0  Code  Gb  psupervisor.o [1]
INITIOCmdCOMPONENT      0xe100bab4    0xa0  Code  Gb  psupervisor.o [1]
INITIOCmdCOMPONENT_WL   0xe100bb54    0xa0  Code  Gb  psupervisor.o [1]
INITTLCmdCOMPONENT      0xe100bbf4    0xa0  Code  Gb  psupervisor.o [1]
INITTLCmdCOMPONENT_WL   0xe100bc94    0xa0  Code  Gb  psupervisor.o [1]
INITtimersCOMPONENT     0xe100c668   0x100  Code  Gb  psupervisor.o [1]
INITtimersCOMPONENT_WL  0xe100c770   0x110  Code  Gb  psupervisor.o [1]
INITustrangCOMPONENT    0xe100b47c   0x318  Code  Gb  psupervisor.o [1]
INITustrangCOMPONENT_WL
                        0xe100b794   0x320  Code  Gb  psupervisor.o [1]
IRQ_STACK$$Base         0xe10af178           --   Gb  - Linker created -
IRQ_STACK$$Limit        0xe10af278           --   Gb  - Linker created -
IciCopy_samples_data_rdy
                        0xe10acd10     0x4  Data  Lc  ici_api.o [1]
InSPIDma                0xe1040b2c    0xfc  Code  Gb  ssp1L.o [1]
InStream_Read           0xe102fecd    0x22  Code  Lc  lz77_init.o [5]
IndexENA                0xe10acea0     0x4  Data  Gb  psupervisor.o [1]
IndexIO                 0xe10ace94     0x4  Data  Gb  psupervisor.o [1]
IndexTIMERS             0xe10ace90     0x4  Data  Gb  psupervisor.o [1]
IndexTLog               0xe10ace9c     0x4  Data  Gb  psupervisor.o [1]
IndexUstSPV             0xe10ace98     0x4  Data  Gb  psupervisor.o [1]
InitFHOME               0xe100a23c    0x24  Code  Gb  systemMenu.o [1]
InitProxyTenPerSamples  0xe1000420     0xc  Code  Gb  AppCn.o [1]
InitProxyTotMeas        0xe1000a4c     0xc  Code  Gb  AppCn.o [1]
InitProxyTransport      0xe10017cc     0xc  Code  Gb  AppCn.o [1]
InitializeInterruptSystem
                        0xe100a3a4   0x1a0  Code  Gb  main.o [1]
InputLECmd              0xe10ac13c    0x50  Data  Gb  widelogmanager.o [1]
InsertUrgBr2Bs          0xe1011444   0x110  Code  Gb  lpu.o [1]
Int_clear               0xe1011ae8    0x54  Code  Gb  lpcAV1_intc_driver.o [1]
Int_disable1            0xe1011a44    0x38  Code  Gb  lpcAV1_intc_driver.o [1]
Int_disableGen          0xe1011a7c    0x38  Code  Gb  lpcAV1_intc_driver.o [1]
Int_enable              0xe10119b0    0x60  Code  Gb  lpcAV1_intc_driver.o [1]
Int_enable1             0xe1011a10    0x34  Code  Gb  lpcAV1_intc_driver.o [1]
Int_enableGen           0xe1011ab4    0x34  Code  Gb  lpcAV1_intc_driver.o [1]
Int_get_controller      0xe1011764    0xc0  Code  Lc  lpcAV1_intc_driver.o [1]
Int_install_ext_irq_handler
                        0xe1011824   0x188  Code  Gb  lpcAV1_intc_driver.o [1]
IsEOI_HS2               0xe10303dc    0x68  Code  Gb  hu2l.o [1]
JLINKDCC_AbortOccurred  0xe10ad125     0x1  Data  Gb  JLINKDCC_Process.o [1]
JLINKDCC_IsInHandler    0xe10ad124     0x1  Data  Gb  JLINKDCC_Process.o [1]
JLINKDCC_Process        0xe101208c    0x38  Code  Gb  JLINKDCC_Process.o [1]
KadrFinder              0xe102ecf0    0xdc  Code  Gb  ViewMenuReg.o [1]
KadrMaker               0xe102ec08    0xe8  Code  Gb  ViewMenuReg.o [1]
KadrMenuFormat_reg      0xe102eae0   0x128  Code  Gb  ViewMenuReg.o [1]
KadrMenuFormat_sub      0xe100cb2c    0x80  Code  Gb  viewMenuSub.o [1]
KadrMenuFormat_upr_compAPV
                        0xe1024c6c    0xe4  Code  Gb  APVComponent.o [1]
KadrMenuFormat_upr_compCDI
                        0xe1020360    0xa0  Code  Gb  PRM1Component.o [1]
KadrMenuFormat_upr_compDV
                        0xe10201cc    0xf4  Code  Gb  PRM1Component.o [1]
KadrMenuFormat_upr_compDZ1
                        0xe1027550    0xa0  Code  Gb  DZ1Component.o [1]
KadrMenuFormat_upr_compDZ3
                        0xe102e60c    0xa0  Code  Gb  DZ3Component.o [1]
KadrMenuFormat_upr_compDZ4
                        0xe102d79c    0xa0  Code  Gb  DZ4Component.o [1]
KadrMenuFormat_upr_compDZ5
                        0xe102d3e8    0xa0  Code  Gb  DZ5Component.o [1]
KadrMenuFormat_upr_compMTZ1
                        0xe1026a58    0xdc  Code  Gb  MTZ1Component.o [1]
KadrMenuFormat_upr_compMTZ2
                        0xe1025b0c    0xdc  Code  Gb  MTZ2Component.o [1]
KadrMenuFormat_upr_compMTZ3
                        0xe102c01c    0xdc  Code  Gb  MTZ3Component.o [1]
KadrMenuFormat_upr_compMTZ4
                        0xe102cc44    0xdc  Code  Gb  MTZ4Component.o [1]
KadrMenuFormat_upr_compMTZ5
                        0xe102c438    0xdc  Code  Gb  MTZ5Component.o [1]
KadrMenuFormat_upr_compNZOP1
                        0xe1029ab0    0xa0  Code  Gb  NZOP1Component.o [1]
KadrMenuFormat_upr_compNZOP2
                        0xe102d01c    0xa0  Code  Gb  NZOP2Component.o [1]
KadrMenuFormat_upr_compOF
                        0xe10214b8    0xa0  Code  Gb  OFComponent.o [1]
KadrMenuFormat_upr_compPRM1
                        0xe102012c    0xa0  Code  Gb  PRM1Component.o [1]
KadrMenuFormat_upr_compRELE
                        0xe10202c0    0xa0  Code  Gb  PRM1Component.o [1]
KadrMenuFormat_upr_compTZNP1
                        0xe1028f30    0xa0  Code  Gb  TZNP1Component.o [1]
KadrMenuFormat_upr_compTZNP2
                        0xe102c824    0xa0  Code  Gb  TZNP2Component.o [1]
KadrMenuFormat_upr_compTZNP3
                        0xe102db4c    0xa0  Code  Gb  TZNP3Component.o [1]
KadrMenuFormat_upr_compTZNP4
                        0xe102defc    0xa0  Code  Gb  TZNP4Component.o [1]
KadrMenuFormat_upr_compTZNP5
                        0xe102e2ac    0xa0  Code  Gb  TZNP5Component.o [1]
KadrMenuFormat_upr_compUMM
                        0xe102a51c    0xa0  Code  Gb  UMMComponent.o [1]
KadrMenuFormat_upr_compUROV
                        0xe102b074    0xa0  Code  Gb  UROVComponent.o [1]
KadrMenuFormat_ust_compOF
                        0xe1021384    0xbc  Code  Gb  OFComponent.o [1]
KadrMenuFormat_ust_compUROV
                        0xe102ad94    0xbc  Code  Gb  UROVComponent.o [1]
KadrMenuFormat_ustvidAPV
                        0xe1024a20    0xbc  Code  Gb  APVComponent.o [1]
KadrMenuFormat_ustvidDZ
                        0xe10273a4    0xbc  Code  Gb  DZ1Component.o [1]
KadrMenuFormat_ustvidMTZ
                        0xe1026800    0xbc  Code  Gb  MTZ1Component.o [1]
KadrMenuFormat_ustvidNZOP
                        0xe102988c    0xbc  Code  Gb  NZOP1Component.o [1]
KadrMenuFormat_ustvidPRM1
                        0xe101fd30    0xbc  Code  Gb  PRM1Component.o [1]
KadrMenuFormat_ustvidTZNP
                        0xe1028d34    0xbc  Code  Gb  TZNP1Component.o [1]
KadrMenuFormat_ustvidUMM
                        0xe102a348    0xbc  Code  Gb  UMMComponent.o [1]
KadrMenuFormat_vid_compUROV
                        0xe102aef0    0xbc  Code  Gb  UROVComponent.o [1]
KadrMenuFormat_viewActual
                        0xe102b9b4    0x24  Code  Gb  ViewMenuRang.o [1]
KadrMenuFormat_viewActualDV
                        0xe102b9d8    0x28  Code  Gb  ViewMenuRang.o [1]
KadrMenuFormat_viewActualRele
                        0xe102ba00    0x28  Code  Gb  ViewMenuRang.o [1]
L1Table                 0x08004000  0x4000  Data  Gb  ttbl.o [1]
L2Coarses1              0x08008000   0x400  Data  Gb  ttbl.o [1]
L2Coarses2              0x08008800   0x400  Data  Gb  ttbl.o [1]
LanderPStr              0xe100a574     0x4  Code  Gb  main.o [1]
LanderUpDown            0xe100a57c     0x4  Code  Gb  main.o [1]
ListPStr                0xe100a584     0x4  Code  Gb  main.o [1]
Load1String             0xe1009d4c    0xf4  Code  Gb  systemMenu.o [1]
Load2String             0xe1009e40    0xf4  Code  Gb  systemMenu.o [1]
LoadInt                 0xe100fc9c    0xcc  Code  Lc  xprintffull.o [3]
LowLevelInit            0xe102f6c8   0x2b8  Code  Gb  board_lowlevel.o [1]
M16_J18_K18_A15_PioInit
                        0xe100cecc    0x40  Code  Gb  u3.o [1]
MTZ1_TITLE              0xe1085b90     0x8  Data  Gb  MTZ1Component.o [1]
MTZ2_TITLE              0xe1085b98     0x8  Data  Gb  MTZ2Component.o [1]
MTZ3_TITLE              0xe1085ba0     0x8  Data  Gb  MTZ3Component.o [1]
MTZ4_TITLE              0xe1085ba8     0x8  Data  Gb  MTZ4Component.o [1]
MTZ5_TITLE              0xe1085bb0     0x8  Data  Gb  MTZ5Component.o [1]
MakeEmptyTopSub_menu    0xe100940c    0x60  Code  Gb  systemMenu.o [1]
MakePacketDZ            0xe102f300    0xa8  Code  Gb  DZPacket.o [1]
MakePacketMTZ           0xe102f5f0    0xa8  Code  Gb  MTZPacket.o [1]
MakePacketNZOP          0xe102fc24    0xa8  Code  Gb  NZOPPacket.o [1]
MakePacketTZNP          0xe102f010    0xa8  Code  Gb  TZNPPacket.o [1]
MakeRDIScmdPusk         0xe103cc4c    0xe8  Code  Gb  toSpeedDIS.o [1]
Meas_Ready_Handler      0xe10304b4     0xc  Code  Gb  ici_api.o [1]
MngRangGetPointerUVVRANGIRtoRead
                        0xe100aa30   0x29c  Code  Gb  rangmanager.o [1]
MngRangTopAddNameStatusRANGIR
                        0xe100a638   0x148  Code  Gb  rangmanager.o [1]
MngRangTopAddNameStatusRANGIR_WL
                        0xe100a780   0x140  Code  Gb  rangmanager.o [1]
MngRangTopAddQuadroRANGIR
                        0xe100a588    0xb0  Code  Gb  rangmanager.o [1]
MngUstTopAddUSTAVKI     0xe100af74    0x98  Code  Gb  ustmanager.o [1]
MngUstTopAddUSTAVKI_WL  0xe100b00c    0x98  Code  Gb  ustmanager.o [1]
MoveCTputoAppObj        0xe10026c0    0xf4  Code  Gb  AppCn.o [1]
MultiBitWorkerHostQuadro
                        0xe10332b8    0x90  Code  Gb  toSpeedOptim.o [1]
MultiBitWorkerHostWord  0xe1008b60    0x74  Code  Gb  psvisor_help.o [1]
NZOP1_TITLE             0xe1085bb8     0x8  Data  Gb  NZOP1Component.o [1]
NZOP2_TITLE             0xe1085bc0     0x8  Data  Gb  NZOP2Component.o [1]
New_name_clon           0xe100946c   0x158  Code  Gb  systemMenu.o [1]
New_name_clon_WL        0xe10095c4   0x15c  Code  Gb  systemMenu.o [1]
NumBitCheckQuadro       0xe1008aa8    0x54  Code  Gb  psvisor_help.o [1]
NumBitCheckWord         0xe10089f0    0x48  Code  Gb  psvisor_help.o [1]
NumBitSettingQuadro     0xe1008a38    0x70  Code  Gb  psvisor_help.o [1]
NumBitSettingWord       0xe10089bc    0x34  Code  Gb  psvisor_help.o [1]
OFunction               0xe103b7e4    0x3c  Code  Gb  logictimers.o [1]
OFunction_WL            0xe103b820    0x3c  Code  Gb  logictimers.o [1]
OpenMenuComponent       0xe1009724   0x26c  Code  Gb  systemMenu.o [1]
OpenMenuComponent_WL    0xe1009990   0x26c  Code  Gb  systemMenu.o [1]
OpenMenuWL              0xe102e7d0    0x3c  Code  Gb  WLComponent.o [1]
OrderCallBack           0xe100dbf0    0x4c  Code  Gb  callBackElement.o [1]
OutSPIDma               0xe107f298   0x294  Code  Gb  ssp1L.o [1]
OutStream_Write         0xe102feef    0x42  Code  Lc  lz77_init.o [5]
P02Int                  0xe100ceb8    0x14  Code  Gb  u3.o [1]
PF_TITLE                0xe1085b68     0xc  Data  Gb  PFComponent.o [1]
PLogTimer               0xe103b708    0x70  Code  Gb  logictimers.o [1]
PLogTimer_WL            0xe103b778    0x6c  Code  Gb  logictimers.o [1]
PREPAREustCOMPONENT     0xe100be74    0xc4  Code  Gb  psupervisor.o [1]
PREPAREustCOMPONENT_WL  0xe100bf38    0xcc  Code  Gb  psupervisor.o [1]
PRM1_TITLE              0xe1085bd0     0x8  Data  Gb  PRM1Component.o [1]
PassPrtTblPrMngRvMsg    0xe10019c0    0x58  Code  Gb  AppCn.o [1]
PassPrtTblPrMngRvMsgOrigin
                        0xe1001a1c   0x160  Code  Gb  AppCn.o [1]
PassWord                0xe1009cd4     0x4  Code  Gb  systemMenu.o [1]
PereinitAvaitCnf        0xe1008e68    0x48  Code  Gb  ViewMenuCnf.o [1]
PereinitRpzWL           0xe100f2b8    0x48  Code  Gb  ViewRepozitWL.o [1]
PereinitSub             0xe100cbb0    0x58  Code  Gb  viewMenuSub.o [1]
PereinitUprListCompAPV  0xe1024b54    0x44  Code  Gb  APVComponent.o [1]
PereinitUprListCompCDI  0xe10200e8    0x44  Code  Gb  PRM1Component.o [1]
PereinitUprListCompDV   0xe101fff8    0x44  Code  Gb  PRM1Component.o [1]
PereinitUprListCompDZ1  0xe10274d8    0x44  Code  Gb  DZ1Component.o [1]
PereinitUprListCompDZ3  0xe102e594    0x44  Code  Gb  DZ3Component.o [1]
PereinitUprListCompDZ4  0xe102d6d4    0x44  Code  Gb  DZ4Component.o [1]
PereinitUprListCompDZ5  0xe102d304    0x44  Code  Gb  DZ5Component.o [1]
PereinitUprListCompMTZ1
                        0xe102695c    0x44  Code  Gb  MTZ1Component.o [1]
PereinitUprListCompMTZ2
                        0xe1025a14    0x44  Code  Gb  MTZ2Component.o [1]
PereinitUprListCompMTZ3
                        0xe102bf24    0x44  Code  Gb  MTZ3Component.o [1]
PereinitUprListCompMTZ4
                        0xe102cb4c    0x44  Code  Gb  MTZ4Component.o [1]
PereinitUprListCompMTZ5
                        0xe102c340    0x44  Code  Gb  MTZ5Component.o [1]
PereinitUprListCompNZOP1
                        0xe10299e8    0x44  Code  Gb  NZOP1Component.o [1]
PereinitUprListCompNZOP2
                        0xe102cf54    0x44  Code  Gb  NZOP2Component.o [1]
PereinitUprListCompOF   0xe1021440    0x44  Code  Gb  OFComponent.o [1]
PereinitUprListCompPRM1
                        0xe101feb8    0x44  Code  Gb  PRM1Component.o [1]
PereinitUprListCompRELE
                        0xe1020070    0x44  Code  Gb  PRM1Component.o [1]
PereinitUprListCompTZNP1
                        0xe1028e68    0x44  Code  Gb  TZNP1Component.o [1]
PereinitUprListCompTZNP2
                        0xe102c75c    0x44  Code  Gb  TZNP2Component.o [1]
PereinitUprListCompTZNP3
                        0xe102da84    0x44  Code  Gb  TZNP3Component.o [1]
PereinitUprListCompTZNP4
                        0xe102de34    0x44  Code  Gb  TZNP4Component.o [1]
PereinitUprListCompTZNP5
                        0xe102e1e4    0x44  Code  Gb  TZNP5Component.o [1]
PereinitUprListCompUMM  0xe102a4a4    0x44  Code  Gb  UMMComponent.o [1]
PereinitUprListCompUROV
                        0xe102afac    0x44  Code  Gb  UROVComponent.o [1]
PereinitUprListCompUVV  0xe101fefc    0x44  Code  Gb  PRM1Component.o [1]
PereinitUstListCompAPV  0xe102497c    0x44  Code  Gb  APVComponent.o [1]
PereinitUstListCompDZ1  0xe102732c    0x44  Code  Gb  DZ1Component.o [1]
PereinitUstListCompDZ3  0xe102e478    0x44  Code  Gb  DZ3Component.o [1]
PereinitUstListCompDZ4  0xe102d5b8    0x44  Code  Gb  DZ4Component.o [1]
PereinitUstListCompDZ5  0xe102d1e8    0x44  Code  Gb  DZ5Component.o [1]
PereinitUstListCompMTZ1
                        0xe102675c    0x44  Code  Gb  MTZ1Component.o [1]
PereinitUstListCompMTZ2
                        0xe10258f8    0x44  Code  Gb  MTZ2Component.o [1]
PereinitUstListCompMTZ3
                        0xe102be08    0x44  Code  Gb  MTZ3Component.o [1]
PereinitUstListCompMTZ4
                        0xe102ca30    0x44  Code  Gb  MTZ4Component.o [1]
PereinitUstListCompMTZ5
                        0xe102c224    0x44  Code  Gb  MTZ5Component.o [1]
PereinitUstListCompNZOP1
                        0xe10297e8    0x44  Code  Gb  NZOP1Component.o [1]
PereinitUstListCompNZOP2
                        0xe102ce10    0x44  Code  Gb  NZOP2Component.o [1]
PereinitUstListCompOF   0xe102130c    0x44  Code  Gb  OFComponent.o [1]
PereinitUstListCompPRM1
                        0xe101fc14    0x44  Code  Gb  PRM1Component.o [1]
PereinitUstListCompTZNP1
                        0xe1028c90    0x44  Code  Gb  TZNP1Component.o [1]
PereinitUstListCompTZNP2
                        0xe102c640    0x44  Code  Gb  TZNP2Component.o [1]
PereinitUstListCompTZNP3
                        0xe102d968    0x44  Code  Gb  TZNP3Component.o [1]
PereinitUstListCompTZNP4
                        0xe102dd18    0x44  Code  Gb  TZNP4Component.o [1]
PereinitUstListCompTZNP5
                        0xe102e0c8    0x44  Code  Gb  TZNP5Component.o [1]
PereinitUstListCompUMM  0xe102a2a4    0x44  Code  Gb  UMMComponent.o [1]
PereinitUstListCompUROV
                        0xe102acf0    0x44  Code  Gb  UROVComponent.o [1]
PereinitUstListCompUVV  0xe101fc58    0x44  Code  Gb  PRM1Component.o [1]
PereinitVidListCompAPV  0xe1024adc    0x44  Code  Gb  APVComponent.o [1]
PereinitVidListCompDZ1  0xe1027460    0x44  Code  Gb  DZ1Component.o [1]
PereinitVidListCompDZ3  0xe102e51c    0x44  Code  Gb  DZ3Component.o [1]
PereinitVidListCompDZ4  0xe102d65c    0x44  Code  Gb  DZ4Component.o [1]
PereinitVidListCompDZ5  0xe102d28c    0x44  Code  Gb  DZ5Component.o [1]
PereinitVidListCompMTZ1
                        0xe10268bc    0x44  Code  Gb  MTZ1Component.o [1]
PereinitVidListCompMTZ2
                        0xe102599c    0x44  Code  Gb  MTZ2Component.o [1]
PereinitVidListCompMTZ3
                        0xe102beac    0x44  Code  Gb  MTZ3Component.o [1]
PereinitVidListCompMTZ4
                        0xe102cad4    0x44  Code  Gb  MTZ4Component.o [1]
PereinitVidListCompMTZ5
                        0xe102c2c8    0x44  Code  Gb  MTZ5Component.o [1]
PereinitVidListCompNZOP1
                        0xe1029948    0x44  Code  Gb  NZOP1Component.o [1]
PereinitVidListCompNZOP2
                        0xe102ceb4    0x44  Code  Gb  NZOP2Component.o [1]
PereinitVidListCompPRM1
                        0xe101fdec    0x44  Code  Gb  PRM1Component.o [1]
PereinitVidListCompTZNP1
                        0xe1028df0    0x44  Code  Gb  TZNP1Component.o [1]
PereinitVidListCompTZNP2
                        0xe102c6e4    0x44  Code  Gb  TZNP2Component.o [1]
PereinitVidListCompTZNP3
                        0xe102da0c    0x44  Code  Gb  TZNP3Component.o [1]
PereinitVidListCompTZNP4
                        0xe102ddbc    0x44  Code  Gb  TZNP4Component.o [1]
PereinitVidListCompTZNP5
                        0xe102e16c    0x44  Code  Gb  TZNP5Component.o [1]
PereinitVidListCompUMM  0xe102a404    0x44  Code  Gb  UMMComponent.o [1]
PereinitVidListCompUROV
                        0xe102ae50    0x44  Code  Gb  UROVComponent.o [1]
PlusCircleCmd           0xe10ac0ec    0x50  Data  Gb  widelogmanager.o [1]
PrepDecompouse10PeriodUnitHSU2
                        0xe1000374    0xac  Code  Gb  AppCn.o [1]
PrepDecompouseAuxStngUnitM2m
                        0xe1003494    0xac  Code  Gb  AppCn.o [1]
PrepDecompouseDiagnUnitSPI
                        0xe10029f8    0xac  Code  Gb  AppCn.o [1]
PrepDecompousePrtTblTptUnitSpi
                        0xe10018ec    0xc0  Code  Gb  AppCn.o [1]
PrepDecompouseSrcSamplesUnitHSU2
                        0xe1000100    0xbc  Code  Gb  AppCn.o [1]
PrepDecompouseTeleMechsUnitSpi
                        0xe10028dc    0xac  Code  Gb  AppCn.o [1]
PrepDecompouseTotMeasUnitHSU2
                        0xe100099c    0xac  Code  Gb  AppCn.o [1]
PrepDecompouseTotVerInfoUnitHSU2
                        0xe1002b68    0xac  Code  Gb  AppCn.o [1]
PrepareAllCnfComponent  0xe1009c70    0x2c  Code  Gb  systemMenu.o [1]
PrepareAllCnfComponent_WL
                        0xe1009c9c    0x2c  Code  Gb  systemMenu.o [1]
PrepareBOBV             0xe1008614    0xd4  Code  Gb  ResetSystemMenu.o [1]
PrepareENACmd           0xe1008c98    0x48  Code  Gb  psvisor_help.o [1]
PrepareEditMenu         0xe1009cd8    0x20  Code  Gb  systemMenu.o [1]
ProcessLLEvt            0xe10115f8    0x8c  Code  Gb  lpu.o [1]
ProcessReceiveEvt       0xe103f464   0x138  Code  Gb  AppCn.o [1]
ProcessReceiveLpduCY7V1
                        0xe1040750   0x184  Code  Gb  lpu.o [1]
ProcessReceiveLpduHSU2  0xe1011204   0x1d0  Code  Gb  lpu.o [1]
ProcessReceiveLpduHSU7  0xe1010e50   0x1d0  Code  Gb  lpu.o [1]
ProcessReceiveLpduSpi   0xe1040248   0x33c  Code  Gb  lpu.o [1]
ProcessTransmitEvt      0xe103f0a4   0x3c0  Code  Gb  AppCn.o [1]
ProcessTransmitLpduHSU2
                        0xe1011020   0x170  Code  Gb  lpu.o [1]
ProcessTransmitLpduM2m  0xe103fe24   0x18c  Code  Gb  lpu.o [1]
ProcessTransmitLpduSpi  0xe103ffb0   0x230  Code  Gb  lpu.o [1]
ProcessTransmitStubSeqSpi
                        0xe1040584   0x1cc  Code  Gb  lpu.o [1]
PuskAPV_UROV_OFWorking  0xe103bb44   0xc90  Code  Gb  toSpeedDIS.o [1]
RecoverHSU2             0xe1043c68    0x7c  Code  Gb  hu2l.o [1]
Region$$Table$$Base     0xe1030720           --   Gb  - Linker created -
Region$$Table$$Limit    0xe103078c           --   Gb  - Linker created -
ReleTrigger             0xe10ace84     0x4  Data  Gb  PRM1Component.o [1]
ReqReceivePrtTblPrTpt   0xe10acc48     0x4  Data  Gb  AppCn.o [1]
ReqTransmitPrtTblPrTpt  0xe10acc44     0x4  Data  Gb  AppCn.o [1]
ResetAlgPrtTblWrEctDsc  0xe10020cc    0x34  Code  Gb  AppCn.o [1]
ResetAllButton          0xe100a580     0x4  Code  Gb  main.o [1]
ResetConfig             0xe1008e1c    0x4c  Code  Gb  ViewMenuCnf.o [1]
ResetProxyTenPerSamples
                        0xe100059c     0xc  Code  Gb  AppCn.o [1]
ResetProxyTotMeas       0xe1000bc8     0xc  Code  Gb  AppCn.o [1]
ResetProxyTransport     0xe10017d8    0x84  Code  Gb  AppCn.o [1]
ResetSystemMenu         0xe1007fe4   0x588  Code  Gb  ResetSystemMenu.o [1]
ResetUpDown             0xe100a578     0x4  Code  Gb  main.o [1]
RpzComponent            0xe100ede0   0x238  Code  Gb  ViewRepozit.o [1]
RpzComponentWL          0xe100f098   0x220  Code  Gb  ViewRepozitWL.o [1]
RstTmr0                 0xe1030398    0x44  Code  Gb  hu2l.o [1]
Rst_LpduHSU2_TpCnState  0xe10113d4    0x70  Code  Gb  lpu.o [1]
Rst_LpduM2m_TpCnState   0xe10401e0    0x68  Code  Gb  lpu.o [1]
Rst_LpduSpi_TpCnState   0xe1011190    0x74  Code  Gb  lpu.o [1]
SVC_STACK$$Base         0xe10af138           --   Gb  - Linker created -
SVC_STACK$$Limit        0xe10af178           --   Gb  - Linker created -
SamplesRvServCTpuApCnUnit
                        0xe10001bc    0x4c  Code  Gb  AppCn.o [1]
Samples_Ready_Handler   0xe104424c   0x1b8  Code  Gb  ici_api.o [1]
SaveAsBlokUstavki       0xe100b430    0x28  Code  Gb  ustmanager.o [1]
SaveCRCrang             0xe100aa10    0x1c  Code  Gb  rangmanager.o [1]
ScanAppReq              0xe10304c0     0x4  Code  Gb  ici_api.o [1]
ScanCnl                 0xe103d99c   0x27c  Code  Gb  CTpu.o [1]
ScanCnlSpi              0xe103dc88   0x25c  Code  Gb  CTpu.o [1]
Scan_Ici_Entry_Data     0xe1044404   0x138  Code  Gb  ici_api.o [1]
Scan_Ici_Event_Req      0xe104453c    0x6c  Code  Gb  ici_api.o [1]
SearchCnfClonComponent  0xe1008eb0    0x74  Code  Gb  ViewMenuCnf.o [1]
SearchCnfClonToComponent
                        0xe1008f24    0xa0  Code  Gb  ViewMenuCnf.o [1]
SelectTypViewLE         0xe10ad104     0x4  Data  Gb  WLComponent.o [1]
SelectorCRRLIGHTLINE    0xe100a204    0x14  Code  Gb  systemMenu.o [1]
SelectorCmd             0xe10022f0    0xb0  Code  Gb  AppCn.o [1]
SelectorDVdriverHi      0xe1037728   0x7bc  Code  Gb  toSpeedOptim.o [1]
SelectorDVdriverLow     0xe10335a8  0x2098  Code  Gb  toSpeedOptim.o [1]
SelectorDVdriverMidd    0xe1035668  0x20a8  Code  Gb  toSpeedOptim.o [1]
SelectorFHOME           0xe100a230     0xc  Code  Gb  systemMenu.o [1]
SelectorLIGHTLINE       0xe100a1e8    0x1c  Code  Gb  systemMenu.o [1]
SelectorMNGBAZA         0xe100a1cc    0x18  Code  Gb  systemMenu.o [1]
SelectorSUBMENU         0xe100a218     0xc  Code  Gb  systemMenu.o [1]
SelectorTEXTCONTROL     0xe100a224     0xc  Code  Gb  systemMenu.o [1]
ServiceTRApCn2          0xe103d10c   0x5cc  Code  Gb  CTpu.o [1]
SetAllTitleLE           0xe102e87c    0x80  Code  Gb  WLComponent.o [1]
SetCmdToUVV             0xe100a8c0    0xf0  Code  Gb  rangmanager.o [1]
SetFld_TpState_CNL      0xe103dfc0    0x54  Code  Gb  CTpu.o [1]
SetMFZonaVertex2to5     0xe1023614   0x220  Code  Gb  DZ2Component.o [1]
SetNameMenuTyp          0xe102e80c    0x70  Code  Gb  WLComponent.o [1]
SetOFZonaVertex2to5     0xe10233ec   0x220  Code  Gb  DZ2Component.o [1]
SetStateCnlTpCn         0xe103cf34    0xd8  Code  Gb  CTpu.o [1]
SetTaskParam1CallBack   0xe100dc3c    0x44  Code  Gb  callBackElement.o [1]
SetTitleLE              0xe100ae78    0x6c  Code  Gb  ViewMenuWideLog.o [1]
SetUVVToClon            0xe100a9b0    0x3c  Code  Gb  rangmanager.o [1]
SetUp_Dma_Chanel        0xe107f000    0x8c  Code  Gb  ssp1L.o [1]
SetUstToClon            0xe100856c    0xa8  Code  Gb  ResetSystemMenu.o [1]
SettingIci_APV          0xe1017cfc   0xb08  Code  Gb  SettingIci_APV.o [1]
SettingIci_DZ1          0xe1016134   0x3d4  Code  Gb  SettingIci_DZ1.o [1]
SettingIci_DZ2to5       0xe10064c4  0x1b20  Code  Gb  SettingIci_DZ2to5.o [1]
SettingIci_MTZ          0xe101421c  0x1a28  Code  Gb  SettingIci_MTZ.o [1]
SettingIci_NZOP         0xe1017900   0x3fc  Code  Gb  SettingIci_NZOP.o [1]
SettingIci_OF           0xe10192bc   0x92c  Code  Gb  SettingIci_OF.o [1]
SettingIci_OFDZ         0xe101d450   0xba4  Code  Gb  SettingIci_OFDZ.o [1]
SettingIci_OFMTZ        0xe101dff4   0x964  Code  Gb  SettingIci_OFMTZ.o [1]
SettingIci_OFTZNP       0xe101ecbc   0xae4  Code  Gb  SettingIci_OFTZNP.o [1]
SettingIci_OFUMM        0xe101e958   0x364  Code  Gb  SettingIci_OFUMM.o [1]
SettingIci_PRM1         0xe1017830    0xd0  Code  Gb  SettingIci_PRM1.o [1]
SettingIci_Rangir       0xe1013d28   0x3dc  Code  Gb  SettingIci_Rangir.o [1]
SettingIci_RangirAPVToDV
                        0xe101cc40    0x70  Code  Gb  SettingIci_RangirAPV.o [1]
SettingIci_RangirAPVToRele
                        0xe101ccb0    0xa0  Code  Gb  SettingIci_RangirAPV.o [1]
SettingIci_RangirDZToDV
                        0xe101bdd0   0x280  Code  Gb  SettingIci_RangirDZ.o [1]
SettingIci_RangirDZToRele
                        0xe101c050   0x820  Code  Gb  SettingIci_RangirDZ.o [1]
SettingIci_RangirMTZ2DV
                        0xe101a070   0x1c0  Code  Gb  SettingIci_RangirMTZ.o [1]
SettingIci_RangirMTZ2Led
                        0xe101a8a0   0x670  Code  Gb  SettingIci_RangirMTZ.o [1]
SettingIci_RangirMTZ2Rele
                        0xe101a230   0x670  Code  Gb  SettingIci_RangirMTZ.o [1]
SettingIci_RangirNZOPToDV
                        0xe101c920    0x70  Code  Gb  SettingIci_RangirNZOP.o [1]
SettingIci_RangirNZOPToRele
                        0xe101c990   0x2b0  Code  Gb  SettingIci_RangirNZOP.o [1]
SettingIci_RangirOFToDV
                        0xe101ce30   0x310  Code  Gb  SettingIci_RangirOF.o [1]
SettingIci_RangirOFToRele
                        0xe101d140   0x310  Code  Gb  SettingIci_RangirOF.o [1]
SettingIci_RangirPRM1ToDV
                        0xe101c870    0x70  Code  Gb  SettingIci_RangirPRM1.o [1]
SettingIci_RangirPRM1ToRele
                        0xe101c8e0    0x40  Code  Gb  SettingIci_RangirPRM1.o [1]
SettingIci_RangirTZNP2DV
                        0xe101b360   0x2e0  Code  Gb  SettingIci_RangirTZNP.o [1]
SettingIci_RangirTZNP2Rele
                        0xe101b640   0x790  Code  Gb  SettingIci_RangirTZNP.o [1]
SettingIci_RangirUMM2DV
                        0xe101af10    0x70  Code  Gb  SettingIci_RangirUMM.o [1]
SettingIci_RangirUMM2Led
                        0xe101b170   0x1f0  Code  Gb  SettingIci_RangirUMM.o [1]
SettingIci_RangirUMM2Rele
                        0xe101af80   0x1f0  Code  Gb  SettingIci_RangirUMM.o [1]
SettingIci_RangirUROVToDV
                        0xe101cd50    0x40  Code  Gb  SettingIci_RangirUROV.o [1]
SettingIci_RangirUROVToRele
                        0xe101cd90    0xa0  Code  Gb  SettingIci_RangirUROV.o [1]
SettingIci_TZNP         0xe1016508  0x1328  Code  Gb  SettingIci_TZNP.o [1]
SettingIci_UMM          0xe1015c44   0x4f0  Code  Gb  SettingIci_UMM.o [1]
SettingIci_UROV         0xe10188c4   0x97c  Code  Gb  SettingIci_UROV.o [1]
ShowTitleSubmenu_crr    0xe1009408     0x4  Code  Gb  systemMenu.o [1]
SpiStallHundler         0xe1010e10    0x14  Code  Gb  ssp1.o [1]
Ssp0_int                0xe1013a04    0x10  Code  Gb  lpcAV1_ssp_driver.o [1]
Ssp_Syncro4             0xe107f52c    0x40  Code  Gb  ssp1L.o [1]
Ssp_configure           0xe1013444   0x100  Code  Lc  lpcAV1_ssp_driver.o [1]
Ssp_ioctl               0xe1013720   0x19c  Code  Gb  lpcAV1_ssp_driver.o [1]
Ssp_open                0xe10135bc   0x164  Code  Gb  lpcAV1_ssp_driver.o [1]
Ssp_read                0xe10138bc    0x80  Code  Gb  lpcAV1_ssp_driver.o [1]
Ssp_set_clock           0xe1013390    0xb4  Code  Lc  lpcAV1_ssp_driver.o [1]
Ssp_standard_interrupt  0xe1013544    0x78  Code  Lc  lpcAV1_ssp_driver.o [1]
Ssp_write               0xe101393c    0xc8  Code  Gb  lpcAV1_ssp_driver.o [1]
StartDiscretReg         0xe103cb4c    0x94  Code  Gb  toSpeedDIS.o [1]
StubForSpiChanel        0xe10304c4    0x54  Code  Gb  ici_api.o [1]
SystemEditUst           0xe1009cf8     0x4  Code  Gb  systemMenu.o [1]
TZNP1_TITLE             0xe1085bd8     0x8  Data  Gb  TZNP1Component.o [1]
TZNP2_TITLE             0xe1085be0     0x8  Data  Gb  TZNP2Component.o [1]
TZNP3_TITLE             0xe1085be8     0x8  Data  Gb  TZNP3Component.o [1]
TZNP4_TITLE             0xe1085bf0     0x8  Data  Gb  TZNP4Component.o [1]
TZNP5_TITLE             0xe1085bf8     0x8  Data  Gb  TZNP5Component.o [1]
Tci_recv_cb_ssp0        0xe107f08c   0x134  Code  Gb  ssp1L.o [1]
Tci_send_cb_ssp0        0xe107f1c0    0xd8  Code  Gb  ssp1L.o [1]
TerminateServiceApCnAuxStng
                        0xe1003490     0x4  Code  Gb  AppCn.o [1]
TerminateServiceApCnDiagn
                        0xe10029f4     0x4  Code  Gb  AppCn.o [1]
TerminateServiceApCnPrPrtTblTpt
                        0xe10018dc    0x10  Code  Gb  AppCn.o [1]
TerminateServiceApCnProxyTenPerSamples
                        0xe1000370     0x4  Code  Gb  AppCn.o [1]
TerminateServiceApCnProxyTotMeas
                        0xe1000998     0x4  Code  Gb  AppCn.o [1]
TerminateServiceApCnTeleMechs
                        0xe10028ac    0x2c  Code  Gb  AppCn.o [1]
TerminateServiceApCnTotVerInfo
                        0xe1002b64     0x4  Code  Gb  AppCn.o [1]
TestMeasProtection      0xe10aa084   0x23c  Data  Gb  SettingIci_data.o [1]
TestReqReceiveT1        0xe10acc28     0x4  Data  Gb  AppCn.o [1]
TestReqTransmitT1       0xe10acc24     0x4  Data  Gb  AppCn.o [1]
TestReqTransmitTenPerSamples
                        0xe10acc2c     0x4  Data  Gb  AppCn.o [1]
TestReqTransmitTotMeas  0xe10acc30     0x4  Data  Gb  AppCn.o [1]
Timer_open              0xe1010aac   0x11c  Code  Gb  lpcAV1_timer_driver.o [1]
Timer_ptr_to_timer_num  0xe1010a34    0x78  Code  Gb  lpcAV1_timer_driver.o [1]
Timer_usec_to_val       0xe10109c4    0x70  Code  Gb  lpcAV1_timer_driver.o [1]
TopAddENACmd            0xe100c528    0x98  Code  Gb  psupervisor.o [1]
TopAddENACmd_WL         0xe100c5c0    0x98  Code  Gb  psupervisor.o [1]
TopAddTEMPLOGIC         0xe100c3f4    0x98  Code  Gb  psupervisor.o [1]
TopAddTEMPLOGIC_WL      0xe100c48c    0x98  Code  Gb  psupervisor.o [1]
TotMeasRRvServCTpuApCnUnit
                        0xe1001104    0x54  Code  Gb  AppCn.o [1]
TranslateINTERFACE      0xe104325c   0x5e8  Code  Gb  translateI.o [1]
TranslateQuadroToWideCmd
                        0xe1008988    0x34  Code  Gb  psvisor_help.o [1]
TranslateQuadroToWideRTCmd
                        0xe1033284    0x34  Code  Gb  toSpeedOptim.o [1]
TranslateWordToWideENA  0xe1008954    0x34  Code  Gb  psvisor_help.o [1]
TryPrtTblActivateExch   0xe1001b7c    0xfc  Code  Gb  AppCn.o [1]
TryPrtTblPrMngAlgWrActivate
                        0xe1002038    0x90  Code  Gb  AppCn.o [1]
TtSB                    0xe1030260   0x110  Data  Gb  ttbl.o [1]
TtTB                    0xe1030ed0    0x14  Data  Gb  ttbl.o [1]
TxtStreamCorrect        0xe10092dc    0x18  Code  Gb  TxtStream.o [1]
TxtStreamIdxKadr        0xe1009300    0x20  Code  Gb  TxtStream.o [1]
TxtStreamInit           0xe1009158    0x54  Code  Gb  TxtStream.o [1]
TxtStreamIteratorBegin  0xe1009218    0x34  Code  Gb  TxtStream.o [1]
TxtStreamIteratorEnd    0xe100924c    0x14  Code  Gb  TxtStream.o [1]
TxtStreamIteratorMidle  0xe1009260    0x7c  Code  Gb  TxtStream.o [1]
TxtStreamMaxKadr        0xe10092f4     0xc  Code  Gb  TxtStream.o [1]
TxtStreamPgDownButtonPrepare
                        0xe10091d8    0x40  Code  Gb  TxtStream.o [1]
TxtStreamReset          0xe10091ac    0x2c  Code  Gb  TxtStream.o [1]
TxtStreamSetEnd         0xe1009320    0x9c  Code  Gb  TxtStream.o [1]
TypLE                   0xe10ab31c   0x100  Data  Gb  widelogmanager.o [1]
UMM_TITLE               0xe1085c54     0x4  Data  Gb  UMMComponent.o [1]
UND_STACK$$Base         0xe10af2b8           --   Gb  - Linker created -
UND_STACK$$Limit        0xe10af2f8           --   Gb  - Linker created -
UROV_TITLE              0xe1085c00     0x8  Data  Gb  UROVComponent.o [1]
Universal_viewRang      0xe102bccc   0x10c  Code  Gb  ViewMenuRang.o [1]
Universal_viewUVV       0xe102ba28   0x2a0  Code  Gb  ViewMenuRang.o [1]
UpdateAppData           0xe103f59c    0x30  Code  Gb  AppCn.o [1]
UpdateLgrBuf            0xe1011554    0xa4  Code  Gb  lpu.o [1]
UpdateRVGoosACTpuUnit   0xe103f7cc   0x2c4  Code  Gb  AppCn.o [1]
UpdateRVGoosBCTpuUnit   0xe103faa8   0x2ec  Code  Gb  AppCn.o [1]
UpdateRVPrTptPrtTbl     0xe10023a0   0x30c  Code  Gb  AppCn.o [1]
UpdateRVSrcSamplesCTpuUnit
                        0xe1003638    0xc0  Code  Gb  CTpu.o [1]
UpdateRVTotAtrCmdTpuUnit
                        0xe1002ed4   0x2b0  Code  Gb  AppCn.o [1]
UpdateRVTotDateTimeTpuUnit
                        0xe100318c   0x2b0  Code  Gb  AppCn.o [1]
UpdateRVTotFCoilTpuUnit
                        0xe1002c20   0x2b0  Code  Gb  AppCn.o [1]
UpdateRVTotMeasRCTpuUnit
                        0xe1000e3c   0x2c4  Code  Gb  AppCn.o [1]
UprCompAPV              0xe1024bcc    0x1c  Code  Gb  APVComponent.o [1]
UprCompDZ4              0xe102d74c    0x1c  Code  Gb  DZ4Component.o [1]
UprCompDZ5              0xe102d394    0x54  Code  Gb  DZ5Component.o [1]
UprCompMTZ1             0xe10269d4    0x1c  Code  Gb  MTZ1Component.o [1]
UprCompMTZ2             0xe1025a8c    0x1c  Code  Gb  MTZ2Component.o [1]
UprCompMTZ3             0xe102bf9c    0x1c  Code  Gb  MTZ3Component.o [1]
UprCompMTZ4             0xe102cbc4    0x1c  Code  Gb  MTZ4Component.o [1]
UprCompMTZ5             0xe102c3b8    0x1c  Code  Gb  MTZ5Component.o [1]
UprCompNZOP1            0xe1029a60    0x1c  Code  Gb  NZOP1Component.o [1]
UprCompNZOP2            0xe102cfcc    0x1c  Code  Gb  NZOP2Component.o [1]
UprCompPRM1             0xe101ff74    0x1c  Code  Gb  PRM1Component.o [1]
UprCompTZNP1            0xe1028ee0    0x1c  Code  Gb  TZNP1Component.o [1]
UprCompTZNP2            0xe102c7d4    0x1c  Code  Gb  TZNP2Component.o [1]
UprCompTZNP3            0xe102dafc    0x1c  Code  Gb  TZNP3Component.o [1]
UprCompTZNP4            0xe102deac    0x1c  Code  Gb  TZNP4Component.o [1]
UprCompTZNP5            0xe102e25c    0x1c  Code  Gb  TZNP5Component.o [1]
UprCompUROV             0xe102b024    0x1c  Code  Gb  UROVComponent.o [1]
UprListCompAPV          0xe1024b98    0x34  Code  Gb  APVComponent.o [1]
UprListCompCDI          0xe10200b4    0x34  Code  Gb  PRM1Component.o [1]
UprListCompDV           0xe101ffc4    0x34  Code  Gb  PRM1Component.o [1]
UprListCompDZ1          0xe102751c    0x34  Code  Gb  DZ1Component.o [1]
UprListCompDZ3          0xe102e5d8    0x34  Code  Gb  DZ3Component.o [1]
UprListCompDZ4          0xe102d718    0x34  Code  Gb  DZ4Component.o [1]
UprListCompDZ5          0xe102d348    0x4c  Code  Gb  DZ5Component.o [1]
UprListCompMTZ1         0xe10269a0    0x34  Code  Gb  MTZ1Component.o [1]
UprListCompMTZ2         0xe1025a58    0x34  Code  Gb  MTZ2Component.o [1]
UprListCompMTZ3         0xe102bf68    0x34  Code  Gb  MTZ3Component.o [1]
UprListCompMTZ4         0xe102cb90    0x34  Code  Gb  MTZ4Component.o [1]
UprListCompMTZ5         0xe102c384    0x34  Code  Gb  MTZ5Component.o [1]
UprListCompNZOP1        0xe1029a2c    0x34  Code  Gb  NZOP1Component.o [1]
UprListCompNZOP2        0xe102cf98    0x34  Code  Gb  NZOP2Component.o [1]
UprListCompOF           0xe1021484    0x34  Code  Gb  OFComponent.o [1]
UprListCompPRM1         0xe101ff40    0x34  Code  Gb  PRM1Component.o [1]
UprListCompRELE         0xe102003c    0x34  Code  Gb  PRM1Component.o [1]
UprListCompTZNP1        0xe1028eac    0x34  Code  Gb  TZNP1Component.o [1]
UprListCompTZNP2        0xe102c7a0    0x34  Code  Gb  TZNP2Component.o [1]
UprListCompTZNP3        0xe102dac8    0x34  Code  Gb  TZNP3Component.o [1]
UprListCompTZNP4        0xe102de78    0x34  Code  Gb  TZNP4Component.o [1]
UprListCompTZNP5        0xe102e228    0x34  Code  Gb  TZNP5Component.o [1]
UprListCompUMM          0xe102a4e8    0x34  Code  Gb  UMMComponent.o [1]
UprListCompUROV         0xe102aff0    0x34  Code  Gb  UROVComponent.o [1]
UprListCompUVV          0xe101fe64    0x2c  Code  Gb  PRM1Component.o [1]
UpravlChooser1APVInKadr
                        0xe1024d50    0x3c  Code  Gb  APVComponent.o [1]
UpravlChooser2APVInKadr
                        0xe1024d8c    0x3c  Code  Gb  APVComponent.o [1]
UpravlChooserMTZInKadr  0xe1026c20    0x48  Code  Gb  MTZ1Component.o [1]
UpravlRedactor          0xe1009cd0     0x4  Code  Gb  systemMenu.o [1]
UpravlRedactorChoose1APV
                        0xe1024c64     0x4  Code  Gb  APVComponent.o [1]
UpravlRedactorChoose2APV
                        0xe1024c68     0x4  Code  Gb  APVComponent.o [1]
UpravlRedactorChooseMTZ
                        0xe1026a54     0x4  Code  Gb  MTZ1Component.o [1]
UstCompAPV              0xe10249f4    0x1c  Code  Gb  APVComponent.o [1]
UstCompDZ3              0xe102e4f0    0x1c  Code  Gb  DZ3Component.o [1]
UstCompDZ4              0xe102d630    0x1c  Code  Gb  DZ4Component.o [1]
UstCompDZ5              0xe102d260    0x1c  Code  Gb  DZ5Component.o [1]
UstCompMTZ1             0xe10267d4    0x1c  Code  Gb  MTZ1Component.o [1]
UstCompMTZ2             0xe1025970    0x1c  Code  Gb  MTZ2Component.o [1]
UstCompMTZ3             0xe102be80    0x1c  Code  Gb  MTZ3Component.o [1]
UstCompMTZ4             0xe102caa8    0x1c  Code  Gb  MTZ4Component.o [1]
UstCompMTZ5             0xe102c29c    0x1c  Code  Gb  MTZ5Component.o [1]
UstCompNZOP1            0xe1029860    0x1c  Code  Gb  NZOP1Component.o [1]
UstCompNZOP2            0xe102ce88    0x1c  Code  Gb  NZOP2Component.o [1]
UstCompPRM1             0xe101fcd0    0x1c  Code  Gb  PRM1Component.o [1]
UstCompTZNP1            0xe1028d08    0x1c  Code  Gb  TZNP1Component.o [1]
UstCompTZNP2            0xe102c6b8    0x1c  Code  Gb  TZNP2Component.o [1]
UstCompTZNP3            0xe102d9e0    0x1c  Code  Gb  TZNP3Component.o [1]
UstCompTZNP4            0xe102dd90    0x1c  Code  Gb  TZNP4Component.o [1]
UstCompTZNP5            0xe102e140    0x1c  Code  Gb  TZNP5Component.o [1]
UstCompUMM              0xe102a31c    0x1c  Code  Gb  UMMComponent.o [1]
UstCompUROV             0xe102ad68    0x1c  Code  Gb  UROVComponent.o [1]
UstListCompAPV          0xe10249c0    0x34  Code  Gb  APVComponent.o [1]
UstListCompDZ1          0xe1027370    0x34  Code  Gb  DZ1Component.o [1]
UstListCompDZ3          0xe102e4bc    0x34  Code  Gb  DZ3Component.o [1]
UstListCompDZ4          0xe102d5fc    0x34  Code  Gb  DZ4Component.o [1]
UstListCompDZ5          0xe102d22c    0x34  Code  Gb  DZ5Component.o [1]
UstListCompMTZ1         0xe10267a0    0x34  Code  Gb  MTZ1Component.o [1]
UstListCompMTZ2         0xe102593c    0x34  Code  Gb  MTZ2Component.o [1]
UstListCompMTZ3         0xe102be4c    0x34  Code  Gb  MTZ3Component.o [1]
UstListCompMTZ4         0xe102ca74    0x34  Code  Gb  MTZ4Component.o [1]
UstListCompMTZ5         0xe102c268    0x34  Code  Gb  MTZ5Component.o [1]
UstListCompNZOP1        0xe102982c    0x34  Code  Gb  NZOP1Component.o [1]
UstListCompNZOP2        0xe102ce54    0x34  Code  Gb  NZOP2Component.o [1]
UstListCompOF           0xe1021350    0x34  Code  Gb  OFComponent.o [1]
UstListCompPRM1         0xe101fc9c    0x34  Code  Gb  PRM1Component.o [1]
UstListCompTZNP1        0xe1028cd4    0x34  Code  Gb  TZNP1Component.o [1]
UstListCompTZNP2        0xe102c684    0x34  Code  Gb  TZNP2Component.o [1]
UstListCompTZNP3        0xe102d9ac    0x34  Code  Gb  TZNP3Component.o [1]
UstListCompTZNP4        0xe102dd5c    0x34  Code  Gb  TZNP4Component.o [1]
UstListCompTZNP5        0xe102e10c    0x34  Code  Gb  TZNP5Component.o [1]
UstListCompUMM          0xe102a2e8    0x34  Code  Gb  UMMComponent.o [1]
UstListCompUROV         0xe102ad34    0x34  Code  Gb  UROVComponent.o [1]
UstListCompUVV          0xe101fcfc    0x34  Code  Gb  PRM1Component.o [1]
VidCompMTZ1             0xe1026934    0x18  Code  Gb  MTZ1Component.o [1]
VidCompNZOP1            0xe10299c0    0x18  Code  Gb  NZOP1Component.o [1]
VidCompNZOP2            0xe102cf2c    0x18  Code  Gb  NZOP2Component.o [1]
VidCompPRM1             0xe101fe90    0x18  Code  Gb  PRM1Component.o [1]
VidCompUMM              0xe102a47c    0x18  Code  Gb  UMMComponent.o [1]
VidCompUROV             0xe102aec8    0x18  Code  Gb  UROVComponent.o [1]
VidListCompAPV          0xe1024b20    0x34  Code  Gb  APVComponent.o [1]
VidListCompDZ1          0xe10274a4    0x34  Code  Gb  DZ1Component.o [1]
VidListCompDZ3          0xe102e560    0x34  Code  Gb  DZ3Component.o [1]
VidListCompDZ4          0xe102d6a0    0x34  Code  Gb  DZ4Component.o [1]
VidListCompDZ5          0xe102d2d0    0x34  Code  Gb  DZ5Component.o [1]
VidListCompMTZ1         0xe1026900    0x34  Code  Gb  MTZ1Component.o [1]
VidListCompMTZ2         0xe10259e0    0x34  Code  Gb  MTZ2Component.o [1]
VidListCompMTZ3         0xe102bef0    0x34  Code  Gb  MTZ3Component.o [1]
VidListCompMTZ4         0xe102cb18    0x34  Code  Gb  MTZ4Component.o [1]
VidListCompMTZ5         0xe102c30c    0x34  Code  Gb  MTZ5Component.o [1]
VidListCompNZOP1        0xe102998c    0x34  Code  Gb  NZOP1Component.o [1]
VidListCompNZOP2        0xe102cef8    0x34  Code  Gb  NZOP2Component.o [1]
VidListCompPRM1         0xe101fe30    0x34  Code  Gb  PRM1Component.o [1]
VidListCompTZNP1        0xe1028e34    0x34  Code  Gb  TZNP1Component.o [1]
VidListCompTZNP2        0xe102c728    0x34  Code  Gb  TZNP2Component.o [1]
VidListCompTZNP3        0xe102da50    0x34  Code  Gb  TZNP3Component.o [1]
VidListCompTZNP4        0xe102de00    0x34  Code  Gb  TZNP4Component.o [1]
VidListCompTZNP5        0xe102e1b0    0x34  Code  Gb  TZNP5Component.o [1]
VidListCompUMM          0xe102a448    0x34  Code  Gb  UMMComponent.o [1]
VidListCompUROV         0xe102ae94    0x34  Code  Gb  UROVComponent.o [1]
View1StrWin             0xe100a0c8   0x104  Code  Gb  systemMenu.o [1]
View2StrWin             0xe1009f3c    0xc4  Code  Gb  systemMenu.o [1]
ViewDiskrMenu           0xe10093bc    0x4c  Code  Gb  systemMenu.o [1]
ViewDiskrMenuList       0xe100cb28     0x4  Code  Gb  viewMenuList.o [1]
ViewDiskrMenuSub        0xe100cbac     0x4  Code  Gb  viewMenuSub.o [1]
WL_TITLE                0xe1085c58     0x4  Data  Gb  WLComponent.o [1]
WaitPrtTblCmdHmEct      0xe1001f1c     0xc  Code  Gb  AppCn.o [1]
WideCmdBuffer           0xe10a3d70   0xa0c  Data  Gb  rangmanager.o [1]
WideCmdRTBuffer         0xe10a72e0   0x50c  Data  Gb  rangmanager.o [1]
WideENABuffer           0xe10abe90    0x8c  Data  Gb  psvisor_help.o [1]
WideLogActual           0xe10ad100     0x4  Data  Gb  widelogmanager.o [1]
WorkProxyTenPerSamples  0xe100042c   0x170  Code  Gb  AppCn.o [1]
WorkProxyTotMeas        0xe1000a58   0x170  Code  Gb  AppCn.o [1]
WorkPrtTblPrMng         0xe1001244    0xb8  Code  Gb  AppCn.o [1]
WorkPrtTblPrTpt         0xe1001690   0x13c  Code  Gb  AppCn.o [1]
WorkRangirCDI           0xe1038d8c   0x19c  Code  Gb  toSpeedOptim.o [1]
WorkRangirRele          0xe1038ba4   0x1d4  Code  Gb  toSpeedOptim.o [1]
X1                      0xe1085c2c     0x4  Data  Gb  isNewZonaMethodVRT.o [1]
X12V                    0xe10ac9b8     0x8  Data  Gb  isNewZonaMethodVRT.o [1]
X13V                    0xe10aca38     0x8  Data  Gb  isNewZonaMethodVRT.o [1]
X13V_64                 0xe10acad8     0x8  Data  Gb  isZonaTrianMethodVRT.o [1]
X14V                    0xe10aca48     0x8  Data  Gb  isNewZonaMethodVRT.o [1]
X14V_64                 0xe10aca98     0x8  Data  Gb  isNewZonaMethodVRT.o [1]
X1_64                   0xe10aca58     0x8  Data  Gb  isNewZonaMethodVRT.o [1]
X2                      0xe1085c34     0x4  Data  Gb  isNewZonaMethodVRT.o [1]
X21V                    0xe10ac9c8     0x8  Data  Gb  isNewZonaMethodVRT.o [1]
X21V_64                 0xe10acaa8     0x8  Data  Gb  isNewZonaMethodVRT.o [1]
X23V                    0xe10ac9d8     0x8  Data  Gb  isNewZonaMethodVRT.o [1]
X2_64                   0xe10aca68     0x8  Data  Gb  isNewZonaMethodVRT.o [1]
X3                      0xe10acd14     0x4  Data  Gb  isNewZonaMethodVRT.o [1]
X31V                    0xe10aca28     0x8  Data  Gb  isNewZonaMethodVRT.o [1]
X32V                    0xe10ac9e8     0x8  Data  Gb  isNewZonaMethodVRT.o [1]
X32V_64                 0xe10acab8     0x8  Data  Gb  isNewZonaMethodVRT.o [1]
X34V                    0xe10ac9f8     0x8  Data  Gb  isNewZonaMethodVRT.o [1]
X3_64                   0xe10aca78     0x8  Data  Gb  isNewZonaMethodVRT.o [1]
X4                      0xe1085c3c     0x4  Data  Gb  isNewZonaMethodVRT.o [1]
X41V                    0xe10aca08     0x8  Data  Gb  isNewZonaMethodVRT.o [1]
X41V_64                 0xe10acac8     0x8  Data  Gb  isNewZonaMethodVRT.o [1]
X43V                    0xe10aca18     0x8  Data  Gb  isNewZonaMethodVRT.o [1]
X4_64                   0xe10aca88     0x8  Data  Gb  isNewZonaMethodVRT.o [1]
Y1                      0xe1085c30     0x4  Data  Gb  isNewZonaMethodVRT.o [1]
Y12V                    0xe10ac9c0     0x8  Data  Gb  isNewZonaMethodVRT.o [1]
Y13V                    0xe10aca40     0x8  Data  Gb  isNewZonaMethodVRT.o [1]
Y13V_64                 0xe10acae0     0x8  Data  Gb  isZonaTrianMethodVRT.o [1]
Y14V                    0xe10aca50     0x8  Data  Gb  isNewZonaMethodVRT.o [1]
Y14V_64                 0xe10acaa0     0x8  Data  Gb  isNewZonaMethodVRT.o [1]
Y1_64                   0xe10aca60     0x8  Data  Gb  isNewZonaMethodVRT.o [1]
Y2                      0xe1085c38     0x4  Data  Gb  isNewZonaMethodVRT.o [1]
Y21V                    0xe10ac9d0     0x8  Data  Gb  isNewZonaMethodVRT.o [1]
Y21V_64                 0xe10acab0     0x8  Data  Gb  isNewZonaMethodVRT.o [1]
Y23V                    0xe10ac9e0     0x8  Data  Gb  isNewZonaMethodVRT.o [1]
Y2_64                   0xe10aca70     0x8  Data  Gb  isNewZonaMethodVRT.o [1]
Y3                      0xe10acd18     0x4  Data  Gb  isNewZonaMethodVRT.o [1]
Y31V                    0xe10aca30     0x8  Data  Gb  isNewZonaMethodVRT.o [1]
Y32V                    0xe10ac9f0     0x8  Data  Gb  isNewZonaMethodVRT.o [1]
Y32V_64                 0xe10acac0     0x8  Data  Gb  isNewZonaMethodVRT.o [1]
Y34V                    0xe10aca00     0x8  Data  Gb  isNewZonaMethodVRT.o [1]
Y3_64                   0xe10aca80     0x8  Data  Gb  isNewZonaMethodVRT.o [1]
Y4                      0xe1085c40     0x4  Data  Gb  isNewZonaMethodVRT.o [1]
Y41V                    0xe10aca10     0x8  Data  Gb  isNewZonaMethodVRT.o [1]
Y41V_64                 0xe10acad0     0x8  Data  Gb  isNewZonaMethodVRT.o [1]
Y43V                    0xe10aca20     0x8  Data  Gb  isNewZonaMethodVRT.o [1]
Y4_64                   0xe10aca90     0x8  Data  Gb  isNewZonaMethodVRT.o [1]
_A_BOOT_MAP             0x40004014     0x4  Data  Gb  board_lowlevel.o [1]
_A_EMCAHBControl0       0x31080400     0x4  Data  Gb  board_lowlevel.o [1]
_A_EMCAHBControl2       0x31080440     0x4  Data  Gb  board_lowlevel.o [1]
_A_EMCAHBControl3       0x31080460     0x4  Data  Gb  board_lowlevel.o [1]
_A_EMCAHBControl4       0x31080480     0x4  Data  Gb  board_lowlevel.o [1]
_A_EMCConfig            0x31080008     0x4  Data  Gb  board_lowlevel.o [1]
_A_EMCControl           0x31080000     0x4  Data  Gb  board_lowlevel.o [1]
_A_EMCStaticConfig0     0x31080200     0x4  Data  Gb  board_lowlevel.o [1]
_A_EMCStaticConfig1     0x31080220     0x4  Data  Gb  board_lowlevel.o [1]
_A_EMCStaticConfig2     0x31080240     0x4  Data  Gb  board_lowlevel.o [1]
_A_EMCStaticConfig3     0x31080260     0x4  Data  Gb  board_lowlevel.o [1]
_A_EMCStaticExtendedWait
                        0x31080080     0x4  Data  Gb  board_lowlevel.o [1]
_A_EMCStaticWaitOen0    0x31080208     0x4  Data  Gb  board_lowlevel.o [1]
_A_EMCStaticWaitOen1    0x31080228     0x4  Data  Gb  board_lowlevel.o [1]
_A_EMCStaticWaitOen2    0x31080248     0x4  Data  Gb  board_lowlevel.o [1]
_A_EMCStaticWaitOen3    0x31080268     0x4  Data  Gb  board_lowlevel.o [1]
_A_EMCStaticWaitRd0     0x3108020c     0x4  Data  Gb  board_lowlevel.o [1]
_A_EMCStaticWaitRd1     0x3108022c     0x4  Data  Gb  board_lowlevel.o [1]
_A_EMCStaticWaitRd2     0x3108024c     0x4  Data  Gb  board_lowlevel.o [1]
_A_EMCStaticWaitRd3     0x3108026c     0x4  Data  Gb  board_lowlevel.o [1]
_A_EMCStaticWaitTurn0   0x31080218     0x4  Data  Gb  board_lowlevel.o [1]
_A_EMCStaticWaitTurn1   0x31080238     0x4  Data  Gb  board_lowlevel.o [1]
_A_EMCStaticWaitTurn2   0x31080258     0x4  Data  Gb  board_lowlevel.o [1]
_A_EMCStaticWaitTurn3   0x31080278     0x4  Data  Gb  board_lowlevel.o [1]
_A_EMCStaticWaitWen0    0x31080204     0x4  Data  Gb  board_lowlevel.o [1]
_A_EMCStaticWaitWen1    0x31080224     0x4  Data  Gb  board_lowlevel.o [1]
_A_EMCStaticWaitWen2    0x31080244     0x4  Data  Gb  board_lowlevel.o [1]
_A_EMCStaticWaitWen3    0x31080264     0x4  Data  Gb  board_lowlevel.o [1]
_A_EMCStaticWaitWr0     0x31080214     0x4  Data  Gb  board_lowlevel.o [1]
_A_EMCStaticWaitWr1     0x31080234     0x4  Data  Gb  board_lowlevel.o [1]
_A_EMCStaticWaitWr2     0x31080254     0x4  Data  Gb  board_lowlevel.o [1]
_A_EMCStaticWaitWr3     0x31080274     0x4  Data  Gb  board_lowlevel.o [1]
_A_HCLKDIV_CTRL         0x40004040     0x4  Data  Gb  board_lowlevel.o [1]
_A_HCLKPLL_CTRL         0x40004058     0x4  Data  Gb  board_lowlevel.o [1]
_A_PLL397_CTRL          0x40004048     0x4  Data  Gb  board_lowlevel.o [1]
_A_PWR_CTRL             0x40004044     0x4  Data  Gb  board_lowlevel.o [1]
_A_SDRAMCLK_CTRL        0x40004068     0x4  Data  Gb  board_lowlevel.o [1]
_A_SYSCLK_CTRL          0x40004050     0x4  Data  Gb  board_lowlevel.o [1]
_ActiveChannel          0xe10ad126     0x1  Data  Lc  JLINKDCC_Process.o [1]
_Addr                   0xe10acd20     0x4  Data  Lc  JLINKDCC_Process.o [1]
_Command                0xe10acd1c     0x4  Data  Lc  JLINKDCC_Process.o [1]
_Data                   0xe10acd28     0x4  Data  Lc  JLINKDCC_Process.o [1]
_GenldFull              0xe1010578   0x3d8  Code  Lc  xprintffull.o [3]
_HandleRead             0xe1011b90   0x1d4  Code  Lc  JLINKDCC_Process.o [1]
_HandleWrite            0xe1011d64   0x328  Code  Lc  JLINKDCC_Process.o [1]
_LdtobFull              0xe100ff18   0x654  Code  Lc  xprintffull.o [3]
_LitobFull              0xe100fd68   0x1b0  Code  Lc  xprintffull.o [3]
_NumReadItems           0xe10ad110     0x2  Data  Lc  JLINKDCC_Process.o [1]
_PendingPacketNB        0xe10acd24     0x4  Data  Lc  JLINKDCC_Process.o [1]
_PrintfFull             0xe100f384   0x918  Code  Gb  xprintffull.o [3]
_PutcharsFull           0xe1010950    0x58  Code  Lc  xprintffull.o [3]
_RdPos                  0xe10ad112     0x2  Data  Lc  JLINKDCC_Process.o [1]
_ReadDCC                0xe1011b80     0x8  Code  Lc  JLINKDCC_Process.o [1]
_ReadDCCStat            0xe1011b78     0x8  Code  Lc  JLINKDCC_Process.o [1]
_SProut                 0xe1031164    0x14  Code  Gb  xsprout.o [3]
_WrPos                  0xe10ad114     0x2  Data  Lc  JLINKDCC_Process.o [1]
_WriteDCC               0xe1011b88     0x8  Code  Lc  JLINKDCC_Process.o [1]
_WritePending           0xe10ad128     0x1  Data  Lc  JLINKDCC_Process.o [1]
_WritePendingNB         0xe10ad127     0x1  Data  Lc  JLINKDCC_Process.o [1]
__ICFEDIT_region_RAM_date_no_cache_end__ {Abs}
                        0xe10fffff           --   Gb  command line/config [2]
__ICFEDIT_region_RAM_date_start__ {Abs}
                        0xe1080000           --   Gb  command line/config [2]
__aeabi_cdcmple         0xe1012fd4          Code  Gb  DblCmpLe.o [4]
__aeabi_cdrcmple        0xe101300c          Code  Gb  DblCmpGe.o [4]
__aeabi_d2f             0xe10132ac          Code  Gb  partial_vfp.o [1]
__aeabi_d2iz            0xe1013220    0x10  Code  Gb  DblToS32.o [4]
__aeabi_d2lz            0xe1006190          Code  Gb  DblToS64.o [4]
__aeabi_d2uiz           0xe101334c    0x10  Code  Gb  DblToU32.o [4]
__aeabi_ddiv            0xe1013298          Code  Gb  partial_vfp.o [1]
__aeabi_dmul            0xe1013284          Code  Gb  partial_vfp.o [1]
__aeabi_dsub            0xe1013240    0x14  Code  Gb  DblSub.o [4]
__aeabi_errno_addr      0xe10064b4     0x8  Code  Gb  errno.o [3]
__aeabi_f2iz            0xe101332c          Code  Gb  partial_vfp.o [1]
__aeabi_f2uiz           0xe101333c          Code  Gb  partial_vfp.o [1]
__aeabi_fadd            0xe10132f4          Code  Gb  partial_vfp.o [1]
__aeabi_fdiv            0xe1013308          Code  Gb  partial_vfp.o [1]
__aeabi_fmul            0xe10132cc          Code  Gb  partial_vfp.o [1]
__aeabi_fsub            0xe10132e0          Code  Gb  partial_vfp.o [1]
__aeabi_i2d             0xe1013230    0x10  Code  Gb  S32ToDbl.o [4]
__aeabi_i2f             0xe10132bc          Code  Gb  partial_vfp.o [1]
__aeabi_idiv            0xe100c980          Code  Gb  I32DivMod.o [5]
__aeabi_idiv0           0xe100f380          Code  Gb  IntDivZer.o [5]
__aeabi_idivmod         0xe100c980          Code  Gb  I32DivMod.o [5]
__aeabi_ldiv0           0xe101a06c          Code  Gb  I64DivZer.o [5]
__aeabi_memclr4         0xe1032cd8          Code  Gb  ABImemclr4.o [5]
__aeabi_memcpy          0xe100370c          Code  Gb  ABImemcpy.o [5]
__aeabi_memcpy4         0xe1003730          Code  Gb  ABImemcpy.o [5]
__aeabi_memcpy8         0xe1003730          Code  Gb  ABImemcpy.o [5]
__aeabi_memset          0xe10038cc          Code  Gb  ABImemset.o [5]
__aeabi_ui2d            0xe1013274          Code  Gb  partial_vfp.o [1]
__aeabi_ui2f            0xe101331c          Code  Gb  partial_vfp.o [1]
__aeabi_uidiv           0xe100c9ac          Code  Gb  I32DivMod.o [5]
__aeabi_uidivmod        0xe100c9ac          Code  Gb  I32DivMod.o [5]
__aeabi_uldivmod        0xe1012d78          Code  Gb  I64DivMod.o [5]
__aeabi_uread4          0xe1012d00          Code  Gb  uread4.o [5]
__cmain                 0xe1030618          Code  Gb  cmain.o [5]
__exit                  0xe1030094          Code  Gb  XXexit.o [5]
__iar_Dnorm             0xe1012f5c    0x78  Code  Gb  xdnorm.o [4]
__iar_Dscale            0xe1013044   0x1dc  Code  Gb  xdscale.o [4]
__iar_Errno             0xe1085c5c     0x4  Data  Gb  errno.o [3]
__iar_Memchr            0xe1012ec8          Code  Gb  memchr.o [5]
__iar_Memset            0xe10038cc          Code  Gb  ABImemset.o [5]
__iar_Memset4_word      0xe10305e0          Code  Gb  ABImemset48.o [5]
__iar_Memset8_word      0xe10305e0          Code  Gb  ABImemset48.o [5]
__iar_Memset_word       0xe10038d8          Code  Gb  ABImemset.o [5]
__iar_Strchr            0xe1012ea8          Code  Gb  strchr.o [5]
__iar_data_init3        0xe103064d    0x28  Code  Gb  data_init.o [5]
__iar_dlib_perthread_access
                        0xe10064c0     0x4  Code  Gb  xtls.o [3]
__iar_edom              0xe10064a0          Code  Gb  iarEdom.o [5]
__iar_init_vfp          0xe1031150          Code  Gb  fpinit.o [4]
__iar_lz77_init3        0xe102ff31   0x15a  Code  Gb  lz77_init.o [5]
__iar_program_start     0xe1000000          Code  Gb  cstartup.o [1]
__iar_vfp_ceil          0xe10060fc          Code  Gb  ceil.o [4]
__iar_vfp_ceill         0xe10060fc          Code  Gb  ceil.o [4]
__iar_xatan             0xe1006380          Code  Gb  xatan.o [4]
__iar_zero_init3        0xe10305a5    0x3c  Code  Gb  zero_init3.o [5]
__low_level_init        0xe1030644     0x8  Code  Gb  low_level_init.o [3]
__vector                0xe1030564          Code  Gb  cstartup.o [1]
_acBuffer               0xe10a86e8   0x400  Data  Lc  JLINKDCC_Process.o [1]
_call_main              0xe103062c          Code  Gb  cmain.o [5]
_exit                   0xe1030678          Code  Gb  cexit.o [5]
_main                   0xe1030634          Code  Gb  cmain.o [5]
_pfOnRx                 0xe10acae8     0x8  Data  Gb  JLINKDCC_Process.o [1]
_pfOnTx                 0xe10acaf0     0x8  Data  Gb  JLINKDCC_Process.o [1]
abort                   0xe103008c     0x8  Code  Gb  abort.o [3]
acdcDV                  0xe10ace34     0x4  Data  Gb  main.o [1]
acos                    0xe1006248          Code  Gb  acos.o [4]
acosl                   0xe1006248          Code  Gb  acos.o [4]
act_oldDIS              0xe10ac6b8    0x28  Data  Gb  toSpeedDIS.o [1]
activityDISold          0xe10ad0c0     0x4  Data  Gb  toSpeedDIS.o [1]
activitySEAMold         0xe10ad0c4     0x4  Data  Gb  toSpeedDIS.o [1]
addCDItrig              0xe1037ee4    0x44  Code  Gb  toSpeedOptim.o [1]
addCOMPONENT            0xe100c004   0x1c4  Code  Gb  psupervisor.o [1]
addCOMPONENT_WL         0xe100c1c8   0x1bc  Code  Gb  psupervisor.o [1]
addComp                 0xe1085a90    0x18  Data  Gb  ViewMenuCnf.o [1]
addReleTrig             0xe1037f28    0x44  Code  Gb  toSpeedOptim.o [1]
alterEEPROM             0xe10acc8c     0x4  Data  Gb  cicloGrammaEEPROM1.o [1]
angle_unbalance_APV     0xe10acf44     0x4  Data  Gb  SettingIci_data.o [1]
arBaseFile              0xe103051c    0x48  Data  Gb  AppCn.o [1]
arDateCompilation       0xe1032418     0xc  Data  Gb  AppCn.o [1]
arTimeCompilation       0xe1032424     0xc  Data  Gb  AppCn.o [1]
asin                    0xe10062c8          Code  Gb  asin.o [4]
asinl                   0xe10062c8          Code  Gb  asin.o [4]
bazisTimerMem           0xe109aaec  0x20d0  Data  Gb  logictimers.o [1]
bazisTimerMem_WL        0xe10a1888   0xaf0  Data  Gb  logictimers.o [1]
bitStringUNI            0xe10ac04c    0x50  Data  Gb  ResetSystemMenu.o [1]
blokUSTAVKI             0xe109cbbc  0x1f44  Data  Gb  ustmanager.o [1]
brCfgTbl                0xe10987cc  0x2320  Data  Gb  br_var.o [1]
buffCmdStateINTERFACE   0xe10ac708    0x28  Data  Gb  translateI.o [1]
buffGruppaUstINTERFACE  0xe10ad0dc     0x4  Data  Gb  translateI.o [1]
buffInStateINTERFACE    0xe10ad0c8     0x4  Data  Gb  translateI.o [1]
buffLedStateINTERFACE   0xe10ad0d0     0x4  Data  Gb  translateI.o [1]
buffOutStateINTERFACE   0xe10ad0cc     0x4  Data  Gb  translateI.o [1]
buffTrgCmdStateINTERFACE
                        0xe10ac6e0    0x28  Data  Gb  translateI.o [1]
buffTrgLedStateINTERFACE
                        0xe10ad0d8     0x4  Data  Gb  translateI.o [1]
buffTrgOutStateINTERFACE
                        0xe10ad0d4     0x4  Data  Gb  translateI.o [1]
callBackEEPROM_WRITE    0xe101f9a8   0x26c  Code  Gb  missionCollectionEEPROM1.o [1]
cb_missionDEVICE1       0xe10ac4d0    0x2c  Data  Gb  callBackElement.o [1]
cb_missionDEVICE2       0xe10ac4fc    0x2c  Data  Gb  callBackElement.o [1]
cb_mission_crrDEVICE1   0xe10acc7c     0x4  Data  Gb  callBackElement.o [1]
cb_mission_crrDEVICE2   0xe10acc80     0x4  Data  Gb  callBackElement.o [1]
cdi_bdvv1               0xe10ace58     0x4  Data  Gb  periodOperations.o [1]
ceil                    0xe1006100          Code  Gb  ceil.o [4]
ceill                   0xe1006100          Code  Gb  ceil.o [4]
chEOI_Hs2               0xe10ad121     0x1  Data  Gb  ici_api.o [1]
chEndTransmitHSU2       0xe10ad11a     0x1  Data  Gb  hu2.o [1]
chEntry_Hs2             0xe10ad11f     0x1  Data  Gb  ici_api.o [1]
chEntry_Hs7             0xe10ad11d     0x1  Data  Gb  ici_api.o [1]
chEntry_Ssp0            0xe10ad11c     0x1  Data  Gb  ici_api.o [1]
chHSU2SendHdwEror       0xe10ad11b     0x1  Data  Gb  hu2l.o [1]
chHdwErorHSU2           0xe10ad120     0x1  Data  Gb  ici_api.o [1]
chHdwErorHSU7           0xe10ad11e     0x1  Data  Gb  ici_api.o [1]
chInRecv_cb_ssp         0xe10ad12e     0x1  Data  Lc  ssp1.o [1]
chInSend_cb_ssp         0xe10ad12d     0x1  Data  Lc  ssp1.o [1]
chMakeSpiExch           0xe10ad129     0x1  Data  Lc  lpu.o [1]
chMemCY7                0xe10ad122     0x1  Data  Gb  ici_api.o [1]
chProtectTableComeIn    0xe10ad12b     0x1  Data  Gb  SettingIci_data.o [1]
chResultCallGetMeasPrt  0xe10ad12c     0x1  Data  Gb  SettingIci_data.o [1]
chTotalBadPacketCtr     0xe10ad12a     0x1  Data  Lc  lpu.o [1]
chUsehldPrtTblCmmMsgRV  0xe10ad118     0x1  Data  Gb  AppCn.o [1]
chbrCfgTblState         0xe10ad119     0x1  Data  Gb  br_var.o [1]
choose1TxtAPV           0xe1024dc8    0xf4  Code  Gb  APVComponent.o [1]
choose2TxtAPV           0xe1024ebc    0xb0  Code  Gb  APVComponent.o [1]
chooseTxtMTZ            0xe1026b70    0xb0  Code  Gb  MTZ1Component.o [1]
cicling                 0xe10acd6c     0x4  Data  Gb  main.o [1]
clkpwr_base_clk         0xe10855b4    0x24  Data  Gb  lpc32xx_clkpwr_driver.o [1]
clkpwr_check_pll_setup  0xe100e17c   0x30c  Code  Gb  lpc32xx_clkpwr_driver.o [1]
clkpwr_clk_en_dis       0xe100e82c   0x31c  Code  Gb  lpc32xx_clkpwr_driver.o [1]
clkpwr_get_base_clock   0xe100e568    0xac  Code  Gb  lpc32xx_clkpwr_driver.o [1]
clkpwr_get_base_clock_rate
                        0xe100e614   0x200  Code  Gb  lpc32xx_clkpwr_driver.o [1]
clkpwr_get_clock_rate   0xe100eb4c   0x15c  Code  Gb  lpc32xx_clkpwr_driver.o [1]
clkpwr_mask_and_set     0xe100e548    0x20  Code  Gb  lpc32xx_clkpwr_driver.o [1]
clkpwr_pll_rate         0xe100e52c    0x1c  Code  Gb  lpc32xx_clkpwr_driver.o [1]
clkpwr_pll_rate_from_val
                        0xe100e488    0xa4  Code  Gb  lpc32xx_clkpwr_driver.o [1]
cnfCOMPONENT            0xe109eb00  0x1c20  Data  Gb  psupervisor.o [1]
cnfCOMPONENT_WL         0xe10a6d40   0x5a0  Data  Gb  psupervisor.o [1]
codecUstAPV             0xe10256c8    0x2c  Code  Gb  APVComponent.o [1]
codecUstDZ1             0xe1027dfc    0xf4  Code  Gb  DZ1Component.o [1]
codecUstDZ2             0xe102388c   0x100  Code  Gb  DZ2Component.o [1]
codecUstDZ3             0xe102e6e0    0x30  Code  Gb  DZ3Component.o [1]
codecUstDZ4             0xe102d870    0x30  Code  Gb  DZ4Component.o [1]
codecUstDZ5             0xe102d4bc    0x30  Code  Gb  DZ5Component.o [1]
codecUstMTZ1            0xe1027074    0xcc  Code  Gb  MTZ1Component.o [1]
codecUstMTZ2            0xe10264c8    0xd8  Code  Gb  MTZ2Component.o [1]
codecUstMTZ3            0xe102c12c    0x30  Code  Gb  MTZ3Component.o [1]
codecUstMTZ5            0xe102c548    0x30  Code  Gb  MTZ5Component.o [1]
codecUstNZOP1           0xe102a03c    0xcc  Code  Gb  NZOP1Component.o [1]
codecUstNZOP2           0xe102d0f0    0x30  Code  Gb  NZOP2Component.o [1]
codecUstOF              0xe1022774    0x2c  Code  Gb  OFComponent.o [1]
codecUstPF              0xe10300fc     0xc  Code  Gb  PFComponent.o [1]
codecUstPRM1            0xe10210fc    0x2c  Code  Gb  PRM1Component.o [1]
codecUstTZNP1           0xe1029544    0xcc  Code  Gb  TZNP1Component.o [1]
codecUstTZNP2           0xe102c934    0x30  Code  Gb  TZNP2Component.o [1]
codecUstTZNP3           0xe102dc20    0x30  Code  Gb  TZNP3Component.o [1]
codecUstTZNP4           0xe102dfd0    0x30  Code  Gb  TZNP4Component.o [1]
codecUstTZNP5           0xe102e380    0x30  Code  Gb  TZNP5Component.o [1]
codecUstUMM             0xe102ab44    0x2c  Code  Gb  UMMComponent.o [1]
codecUstUROV            0xe102b354    0x2c  Code  Gb  UROVComponent.o [1]
codecUstWL              0xe102e960     0xc  Code  Gb  WLComponent.o [1]
command_to_receive_current_data
                        0xe10acd08     0x4  Data  Gb  ici_api.o [1]
commonInitENACmd        0xe1008928    0x2c  Code  Gb  psvisor_help.o [1]
commonInitIOCmd         0xe1008778    0x2c  Code  Gb  psvisor_help.o [1]
commonInitTLCmd         0xe10087a4    0x2c  Code  Gb  psvisor_help.o [1]
commonInitTimers        0xe10087d0    0xac  Code  Gb  psvisor_help.o [1]
commonInitTimers_WL     0xe100887c    0xac  Code  Gb  psvisor_help.o [1]
common_shadow           0xe108b1c8  0x5544  Data  Gb  psupervisor.o [1]
controlPoint1VRT        0xe1004c44    0xb8  Code  Gb  isNewZonaMethodVRT.o [1]
controlPoint2VRT        0xe1004d04     0x8  Code  Gb  isNewZonaMethodVRT.o [1]
controlPoint3TrianVRT   0xe1024888    0x30  Code  Gb  isZonaTrianMethodVRT.o [1]
controlPoint3VRT        0xe1004d0c     0x8  Code  Gb  isNewZonaMethodVRT.o [1]
controlPoint4VRT        0xe1004d14    0x40  Code  Gb  isNewZonaMethodVRT.o [1]
controlStruct_DZ        0xe10ac528    0x28  Data  Gb  DZPacket.o [1]
controlStruct_MTZ       0xe10ac578    0x28  Data  Gb  MTZPacket.o [1]
controlStruct_NZOP      0xe10ac5a0    0x28  Data  Gb  NZOPPacket.o [1]
controlStruct_TZNP      0xe10ac730    0x28  Data  Gb  TZNPPacket.o [1]
copyAPVToRepozitar      0xe1025758   0x128  Code  Gb  APVComponent.o [1]
copyDZ1ToRepozitar      0xe1027efc   0x128  Code  Gb  DZ1Component.o [1]
copyDZ2ToRepozitar      0xe10239b8   0x14c  Code  Gb  DZ2Component.o [1]
copyDZpacketToRepozitar
                        0xe102f0e8   0x218  Code  Gb  DZPacket.o [1]
copyMTZ1ToRepozitar     0xe102719c   0x128  Code  Gb  MTZ1Component.o [1]
copyMTZ2ToRepozitar     0xe10265ac   0x14c  Code  Gb  MTZ2Component.o [1]
copyMTZpacketToRepozitar
                        0xe102f3d8   0x218  Code  Gb  MTZPacket.o [1]
copyNZOP1ToRepozitar    0xe102a114   0x134  Code  Gb  NZOP1Component.o [1]
copyNZOPpacketToRepozitar
                        0xe102faa4   0x180  Code  Gb  NZOPPacket.o [1]
copyOFToRepozitar       0xe10227ac   0x110  Code  Gb  OFComponent.o [1]
copyPFToRepozitar       0xe1030114   0x128  Code  Gb  PFComponent.o [1]
copyPRM1ToRepozitar     0xe1021170   0x128  Code  Gb  PRM1Component.o [1]
copyTZNP1ToRepozitar    0xe102961c   0x164  Code  Gb  TZNP1Component.o [1]
copyTZNPpacketToRepozitar
                        0xe102ede8   0x228  Code  Gb  TZNPPacket.o [1]
copyUMMToRepozitar      0xe102ab7c   0x128  Code  Gb  UMMComponent.o [1]
copyUROVToRepozitar     0xe102b38c   0x128  Code  Gb  UROVComponent.o [1]
copyWLToRepozitar       0xe102e978   0x128  Code  Gb  WLComponent.o [1]
cp15_force_cache_coherence
                        0xe1012d20    0x4c  Code  Gb  lpc_arm922t_cp15_driver.o [1]
cp15_get_mmu_control_reg
                        0xe1012d6c     0xc  Code  Gb  lpc_arm922t_cp15_driver.o [1]
current_data_transmit   0xe109070c  0x44c0  Data  Gb  ici_api.o [1]
dataAccessICI           0xe1012104   0xbfc  Code  Gb  SettingIci_data.o [1]
dataCmdStateINTERFACE   0xe10ac09c    0x28  Data  Gb  translateI.o [1]
dataTrgCmdStateINTERFACE
                        0xe10ac0c4    0x28  Data  Gb  translateI.o [1]
ddvIncrementor          0xe10a2828     0x4  Data  Gb  logictimers.o [1]
ddv_fix                 0xe10abd70    0x90  Data  Gb  psupervisor.o [1]
ddv_inc                 0xe10abce0    0x90  Data  Gb  psupervisor.o [1]
deleteComp              0xe1085aa8    0x18  Data  Gb  ViewMenuCnf.o [1]
deleteComp_WL           0xe1085b10    0x14  Data  Gb  ViewMenuCnf.o [1]
detectorLevelDOWN       0xe1032e94    0x6c  Code  Gb  toSpeedOptim.o [1]
detectorLevelDOWN3F     0xe1033004    0x98  Code  Gb  toSpeedOptim.o [1]
detectorLevelUP         0xe1032f00    0x6c  Code  Gb  toSpeedOptim.o [1]
detectorLevelUP3F       0xe1032f6c    0x98  Code  Gb  toSpeedOptim.o [1]
diffDZ3ToRepozitar      0xe102e710    0x98  Code  Gb  DZ3Component.o [1]
diffDZ4ToRepozitar      0xe102d8a0    0x98  Code  Gb  DZ4Component.o [1]
diffDZ5ToRepozitar      0xe102d4ec    0x98  Code  Gb  DZ5Component.o [1]
diffMTZ3ToRepozitar     0xe102c15c    0x98  Code  Gb  MTZ3Component.o [1]
diffMTZ4ToRepozitar     0xe102cd54    0x8c  Code  Gb  MTZ4Component.o [1]
diffMTZ5ToRepozitar     0xe102c578    0x98  Code  Gb  MTZ5Component.o [1]
diffNZOP2ToRepozitar    0xe102d120    0x98  Code  Gb  NZOP2Component.o [1]
diffTZNP2ToRepozitar    0xe102c964    0x9c  Code  Gb  TZNP2Component.o [1]
diffTZNP3ToRepozitar    0xe102dc50    0x98  Code  Gb  TZNP3Component.o [1]
diffTZNP4ToRepozitar    0xe102e000    0x98  Code  Gb  TZNP4Component.o [1]
diffTZNP5ToRepozitar    0xe102e3b0    0x98  Code  Gb  TZNP5Component.o [1]
disable_fiq             0xe1011700    0x14  Code  Lc  lpcAV1_intc_driver.o [1]
disable_irq             0xe1030370    0x14  Code  Lc  hu2l.o [1]
disable_irq             0xe1030688    0x14  Code  Lc  hu7l.o [1]
disable_irq             0xe10116ec    0x14  Code  Lc  lpcAV1_intc_driver.o [1]
disable_irq             0xe10306b0    0x14  Code  Lc  ssp1L.o [1]
disable_irq_fiq         0xe1011714    0x14  Code  Lc  lpcAV1_intc_driver.o [1]
disable_irq_fiq         0xe100a2e8    0x14  Code  Lc  main.o [1]
disable_irq_fiq         0xe1010bd4    0x14  Code  Lc  ssp1.o [1]
div                     0xe101335c    0x34  Code  Gb  div.o [3]
dma_clr                 0xe10ac778    0x20  Data  Gb  ssp1L.o [1]
dma_miso                0xe10858c8    0x20  Data  Gb  ssp1L.o [1]
dma_mosi                0xe10858a8    0x20  Data  Gb  ssp1L.o [1]
dmadrv_dat              0xe10ac1dc    0x4c  Data  Lc  lpcAV1_dma_driver.o [1]
dvUnionMakerHi          0xe1038a9c   0x108  Code  Gb  toSpeedOptim.o [1]
dvUnionMakerLow         0xe103826c   0x404  Code  Gb  toSpeedOptim.o [1]
dvUnionMakerMidd        0xe1038690   0x408  Code  Gb  toSpeedOptim.o [1]
eepromCicling           0xe1085c10     0x4  Data  Gb  cicloGrammaEEPROM1.o [1]
eeprom_status           0xe10acc84     0x4  Data  Gb  cicloGrammaEEPROM1.o [1]
elTrgOldTimer           0xe10a477c   0x4b0  Data  Gb  logictimers.o [1]
elTrgOldTimer_WL        0xe10a2508   0x190  Data  Gb  logictimers.o [1]
elTrgOutTimer           0xe10a4c2c   0x4b0  Data  Gb  logictimers.o [1]
elTrgOutTimer_WL        0xe10a2698   0x190  Data  Gb  logictimers.o [1]
elementAND              0xe1038090   0x11c  Code  Gb  toSpeedOptim.o [1]
elementOR               0xe1037f70   0x11c  Code  Gb  toSpeedOptim.o [1]
elementXOR              0xe10381ac    0xb8  Code  Gb  toSpeedOptim.o [1]
enable_fiq              0xe101173c    0x14  Code  Lc  lpcAV1_intc_driver.o [1]
enable_irq              0xe1030384    0x14  Code  Lc  hu2l.o [1]
enable_irq              0xe103069c    0x14  Code  Lc  hu7l.o [1]
enable_irq              0xe1011728    0x14  Code  Lc  lpcAV1_intc_driver.o [1]
enable_irq              0xe10306c4    0x14  Code  Lc  ssp1L.o [1]
enable_irq_fiq          0xe1011750    0x14  Code  Lc  lpcAV1_intc_driver.o [1]
enable_irq_fiq          0xe100a2fc    0x14  Code  Lc  main.o [1]
enable_irq_fiq          0xe1010be8    0x14  Code  Lc  ssp1.o [1]
exit                    0xe1030674     0x4  Code  Gb  exit.o [3]
external_SRAM_OK        0xe10ad130     0x4  Data  Gb  main.o [1]
foo_wef                 0xe1085924    0x1c  Code  Gb  hu7l.o [1]
getClonOffsetMngUSTAVKI
                        0xe100b318    0x68  Code  Gb  ustmanager.o [1]
getCurrentMngUSTAVKI    0xe100b288    0x14  Code  Gb  ustmanager.o [1]
getNativUstMngUSTAVKI   0xe100b380    0x80  Code  Gb  ustmanager.o [1]
getOffsetENACmdCnf      0xe100c8c0    0x14  Code  Gb  psupervisor.o [1]
getOffsetIOCmdCnf       0xe100c8ac    0x14  Code  Gb  psupervisor.o [1]
getOffsetMngUSTAVKI     0xe100b29c    0x7c  Code  Gb  ustmanager.o [1]
getOffsetSPVUstCnf      0xe100c8d4    0x14  Code  Gb  psupervisor.o [1]
getOffsetTimersCnf      0xe100c880    0x14  Code  Gb  psupervisor.o [1]
getOffsetTimersCnf_WL   0xe100c894    0x18  Code  Gb  psupervisor.o [1]
getShadowBuf            0xe100c3e8     0x8  Code  Gb  psupervisor.o [1]
getTimerBUSY            0xe103b904    0x14  Code  Gb  logictimers.o [1]
getTimerCrr             0xe103b8f0    0x14  Code  Gb  logictimers.o [1]
getTimerFINISH          0xe103b918    0x14  Code  Gb  logictimers.o [1]
getUstOffsetMngUSTAVKI  0xe100b1a4    0xe4  Code  Gb  ustmanager.o [1]
globalTimerReset        0xe1085c44     0x4  Data  Gb  logictimers.o [1]
global_enaDZ3           0xe10accc0     0x4  Data  Gb  DZ2Component.o [1]
gpio_regptr             0xe10acd60     0x4  Data  Gb  main.o [1]
gpio_set_gpo_state      0xe1011b3c    0x3c  Code  Gb  lpc32xx_gpio_driver.o [1]
hclkdivs                0xe1085b34    0x10  Data  Lc  lpc32xx_clkpwr_driver.o [1]
hlVerInfo               0xe1032b70     0x8  Data  Gb  AppCn.o [1]
hldAtrCmdWrp            0xe1085988    0x18  Data  Gb  AppCn.o [1]
hldDateTimeWrp          0xe10859a0    0x18  Data  Gb  AppCn.o [1]
hldFCoilWrp             0xe1085970    0x18  Data  Gb  AppCn.o [1]
hldPrMngPrtTbl          0xe10853d4    0x2c  Data  Gb  AppCn.o [1]
hldPrTrptPrtTbl         0xe1084fa4    0x44  Data  Gb  AppCn.o [1]
hldPrtTblCmmMsgRV       0xe10ac7ec     0xc  Data  Gb  AppCn.o [1]
hldTeleMechsWrp         0xe1085958    0x18  Data  Gb  AppCn.o [1]
hldTotMeasRWrp          0xe1085940    0x18  Data  Gb  AppCn.o [1]
hldTotVerInfoBr         0xe10ac468    0x38  Data  Gb  AppCn.o [1]
hldrAlgPrtTblWrEct      0xe10ac9a4     0x8  Data  Gb  AppCn.o [1]
hldrCn1LpduUnit         0xe10ab504    0xd4  Data  Gb  lpu.o [1]
hldrErrEvt              0xe10ac968     0xc  Data  Gb  AppCn.o [1]
hldrHSU1LpduTRUnit      0xe10ac228    0x4c  Data  Gb  lpu.o [1]
hldrHSU2LpduTRUnit      0xe10ac274    0x4c  Data  Gb  lpu.o [1]
hldrHSU2LpduUnit        0xe10ac30c    0x4c  Data  Gb  lpu.o [1]
hldrHSU7LpduUnit        0xe10ac2c0    0x4c  Data  Gb  lpu.o [1]
hldrM2mLpduTRUnit       0xe10a9470   0x28c  Data  Gb  lpu.o [1]
hldrM2mLpduUnit         0xe10a96fc   0x28c  Data  Gb  lpu.o [1]
hldrRVPrtTblPrMngCTpuUnit
                        0xe10ac7b4    0x18  Data  Gb  CTpu.o [1]
hldrRVPrtTblTransportCTpuUnit
                        0xe1082cf4   0x100  Data  Gb  CTpu.o [1]
hldrSpiLpduTRUnit       0xe10aa2c0   0x210  Data  Gb  lpu.o [1]
hldrSpiLpduUnit         0xe10aa4d0   0x210  Data  Gb  lpu.o [1]
hldrTRPrtTblPrMngCTpuUnit
                        0xe10ac798    0x1c  Data  Gb  CTpu.o [1]
hldrTRPrtTblTransportCTpuUnit
                        0xe1082bf0   0x104  Data  Gb  CTpu.o [1]
hldrTpCnState           0xe10abf9c    0x60  Data  Gb  CTpu.o [1]
holderAtrCmd            0xe10ac758    0x20  Data  Gb  AppCn.o [1]
holderAuxStng           0xe10acc70     0x4  Data  Gb  AppCn.o [1]
holderDateTime          0xe10ac9ac     0x8  Data  Gb  AppCn.o [1]
holderDiagnBrBs         0xe10ac974     0xc  Data  Gb  AppCn.o [1]
holderFCoil             0xe10ac980     0xc  Data  Gb  AppCn.o [1]
holderGoosBIciCopy      0xe10a8ae8   0x338  Data  Gb  AppCn.o [1]
holderProxyTenPerSamplesUnit
                        0xe1083a10    0x64  Data  Gb  AppCn.o [1]
holderProxyTotMeasUnit  0xe1083a74    0x64  Data  Gb  AppCn.o [1]
holderPrtTbl            0xe1080000  0x2328  Data  Gb  AppCn.o [1]
holderRV10PeriodCTpuUnit
                        0xe10ac358    0x48  Data  Gb  CTpu.o [1]
holderRVAtrCmdSOCTpuUnit
                        0xe10852b0    0x34  Data  Gb  CTpu.o [1]
holderRVDateTimeSOCTpuUnit
                        0xe1085470    0x24  Data  Gb  CTpu.o [1]
holderRVFCoilSOCTpuUnit
                        0xe108544c    0x24  Data  Gb  CTpu.o [1]
holderRVGoosASOCTpuUnit
                        0xe10ab41c    0xe8  Data  Gb  CTpu.o [1]
holderRVGoosBSOCTpuUnit
                        0xe1082df4    0xe8  Data  Gb  CTpu.o [1]
holderRVSrcSamplesCTpuUnit
                        0xe10ac428    0x40  Data  Gb  CTpu.o [1]
holderRVTotMeasRSOCTpuUnit
                        0xe10830b0    0x84  Data  Gb  CTpu.o [1]
holderSrcSamplesUnit    0xe10852e4    0x30  Data  Gb  AppCn.o [1]
holderTR10PeriodCTpuUnit
                        0xe10a77ec    0x4c  Data  Gb  CTpu.o [1]
holderTRAuxStngSOCTpuUnit
                        0xe1085908    0x1c  Data  Gb  CTpu.o [1]
holderTRDiagnBrBsSOCTpuUnit
                        0xe1085494    0x24  Data  Gb  CTpu.o [1]
holderTRSrcSamplesCTpuUnit
                        0xe10ac3a0    0x44  Data  Gb  CTpu.o [1]
holderTRTeleMechsSOCTpuUnit
                        0xe1085400    0x28  Data  Gb  CTpu.o [1]
holderTRTotMeasCTpuUnit
                        0xe10ac3e4    0x44  Data  Gb  CTpu.o [1]
holderTRTotVerInfoBrBsSOCTpuUnit
                        0xe108343c    0x78  Data  Gb  CTpu.o [1]
holderTeleMechs         0xe10ac7cc    0x10  Data  Gb  AppCn.o [1]
holderTeleMechsIciCopy  0xe10ac7dc    0x10  Data  Gb  AppCn.o [1]
holderTotMeasR          0xe10a9bfc   0x24c  Data  Gb  AppCn.o [1]
hs2_rxbuff              0xe10aa8e0   0x200  Data  Lc  hu2l.o [1]
hs2_rxfill              0xe10acce8     0x4  Data  Gb  hu2l.o [1]
hs2_rxget               0xe10acce0     0x4  Data  Gb  hu2l.o [1]
hs2_rxsize              0xe10accd8     0x4  Data  Gb  hu2l.o [1]
hs2_send_cb             0xe1043844   0x1a8  Code  Gb  hu2l.o [1]
hs2_txbuff              0xe10aa6e0   0x200  Data  Lc  hu2l.o [1]
hs2_txfill              0xe10accdc     0x4  Data  Gb  hu2l.o [1]
hs2_txget               0xe10acce4     0x4  Data  Gb  hu2l.o [1]
hs2_txsize              0xe10accd4     0x4  Data  Gb  hu2l.o [1]
hs2uartdev              0xe10accd0     0x4  Data  Gb  hu2l.o [1]
hs7_rxbuff              0xe10aaae0   0x200  Data  Lc  hu7l.o [1]
hs7_rxfill              0xe10acd00     0x4  Data  Gb  hu7l.o [1]
hs7_rxget               0xe10accfc     0x4  Data  Gb  hu7l.o [1]
hs7_rxsize              0xe10accf8     0x4  Data  Gb  hu7l.o [1]
hs7uartdev              0xe10accf4     0x4  Data  Gb  hu7l.o [1]
hs_uart_find_clk        0xe102b518    0x98  Code  Gb  lpcAV1_hsuart_driver.o [1]
hs_uart_ioctl           0xe102b720   0x1ac  Code  Gb  lpcAV1_hsuart_driver.o [1]
hs_uart_recover         0xe102b8cc    0xe8  Code  Gb  lpcAV1_hsuart_driver.o [1]
hs_uart_setup_trans_mode
                        0xe102b5b0   0x170  Code  Gb  lpcAV1_hsuart_driver.o [1]
hs_uart_write1          0xe1043d24    0x88  Code  Gb  lpcAV1_hsuart_driver.o [1]
hst_regptr              0xe10acd58     0x4  Data  Gb  main.o [1]
hstimer_user_interrupt  0xe103b598   0x170  Code  Gb  logictimers.o [1]
hsuart_abs              0xe102b500    0x18  Code  Gb  lpcAV1_hsuart_driver.o [1]
ici_hdw_init            0xe100cd70   0x130  Code  Gb  u3.o [1]
inU2                    0xe1043b48   0x120  Code  Gb  hu2l.o [1]
inU7                    0xe1044c28   0x120  Code  Gb  hu7l.o [1]
indexLgm                0xe10ace50     0x4  Data  Gb  periodOperations.o [1]
initCOMPONENT           0xe100c390    0x28  Code  Gb  psupervisor.o [1]
initCOMPONENT_WL        0xe100c3b8    0x28  Code  Gb  psupervisor.o [1]
initCallBackElement     0xe100dc80    0x54  Code  Gb  callBackElement.o [1]
initENACmd_APV          0xe10256a4    0x10  Code  Gb  APVComponent.o [1]
initENACmd_DZ1          0xe1027dd8    0x10  Code  Gb  DZ1Component.o [1]
initENACmd_DZ2          0xe1023868    0x10  Code  Gb  DZ2Component.o [1]
initENACmd_MTZ1         0xe1027050    0x10  Code  Gb  MTZ1Component.o [1]
initENACmd_MTZ2         0xe10264a4    0x10  Code  Gb  MTZ2Component.o [1]
initENACmd_NZOP1        0xe102a018    0x10  Code  Gb  NZOP1Component.o [1]
initENACmd_OF           0xe1022724    0x10  Code  Gb  OFComponent.o [1]
initENACmd_PF           0xe10300f0     0x8  Code  Gb  PFComponent.o [1]
initENACmd_PRM1         0xe10210b8    0x20  Code  Gb  PRM1Component.o [1]
initENACmd_TZNP1        0xe1029520    0x10  Code  Gb  TZNP1Component.o [1]
initENACmd_UMM          0xe102ab20    0x10  Code  Gb  UMMComponent.o [1]
initENACmd_UROV         0xe102b330    0x10  Code  Gb  UROVComponent.o [1]
initENACmd_WL           0xe102e94c    0x10  Code  Gb  WLComponent.o [1]
initIOCmd_APV           0xe1025674    0x20  Code  Gb  APVComponent.o [1]
initIOCmd_DZ1           0xe1027da8    0x20  Code  Gb  DZ1Component.o [1]
initIOCmd_DZ2           0xe1023834    0x20  Code  Gb  DZ2Component.o [1]
initIOCmd_MTZ1          0xe1027020    0x20  Code  Gb  MTZ1Component.o [1]
initIOCmd_MTZ2          0xe1026474    0x20  Code  Gb  MTZ2Component.o [1]
initIOCmd_NZOP1         0xe1029fe8    0x20  Code  Gb  NZOP1Component.o [1]
initIOCmd_OF            0xe10226f4    0x20  Code  Gb  OFComponent.o [1]
initIOCmd_PF            0xe10300c8    0x20  Code  Gb  PFComponent.o [1]
initIOCmd_PRM1          0xe1021088    0x20  Code  Gb  PRM1Component.o [1]
initIOCmd_TZNP1         0xe10294f0    0x20  Code  Gb  TZNP1Component.o [1]
initIOCmd_UMM           0xe102aaf0    0x20  Code  Gb  UMMComponent.o [1]
initIOCmd_UROV          0xe102b300    0x20  Code  Gb  UROVComponent.o [1]
initIOCmd_WL            0xe102e91c    0x20  Code  Gb  WLComponent.o [1]
initLogTimer            0xe100c928    0x28  Code  Gb  logictimers.o [1]
initLogTimer_WL         0xe100c950    0x24  Code  Gb  logictimers.o [1]
initTLCmd_APV           0xe1025694    0x10  Code  Gb  APVComponent.o [1]
initTLCmd_DZ1           0xe1027dc8    0x10  Code  Gb  DZ1Component.o [1]
initTLCmd_DZ2           0xe1023858    0x10  Code  Gb  DZ2Component.o [1]
initTLCmd_MTZ1          0xe1027040    0x10  Code  Gb  MTZ1Component.o [1]
initTLCmd_MTZ2          0xe1026494    0x10  Code  Gb  MTZ2Component.o [1]
initTLCmd_NZOP1         0xe102a008    0x10  Code  Gb  NZOP1Component.o [1]
initTLCmd_OF            0xe1022714    0x10  Code  Gb  OFComponent.o [1]
initTLCmd_PF            0xe10300e8     0x8  Code  Gb  PFComponent.o [1]
initTLCmd_PRM1          0xe10210a8    0x10  Code  Gb  PRM1Component.o [1]
initTLCmd_TZNP1         0xe1029510    0x10  Code  Gb  TZNP1Component.o [1]
initTLCmd_UMM           0xe102ab10    0x10  Code  Gb  UMMComponent.o [1]
initTLCmd_UROV          0xe102b320    0x10  Code  Gb  UROVComponent.o [1]
initTLCmd_WL            0xe102e93c    0x10  Code  Gb  WLComponent.o [1]
initTimers              0xe103b85c    0x4c  Code  Gb  logictimers.o [1]
initTimersAPV           0xe10256b4    0x14  Code  Gb  APVComponent.o [1]
initTimersDZ1           0xe1027de8    0x14  Code  Gb  DZ1Component.o [1]
initTimersDZ2           0xe1023878    0x14  Code  Gb  DZ2Component.o [1]
initTimersMTZ1          0xe1027060    0x14  Code  Gb  MTZ1Component.o [1]
initTimersMTZ2          0xe10264b4    0x14  Code  Gb  MTZ2Component.o [1]
initTimersNZOP1         0xe102a028    0x14  Code  Gb  NZOP1Component.o [1]
initTimersOF            0xe1022734    0x40  Code  Gb  OFComponent.o [1]
initTimersPF            0xe10300f8     0x4  Code  Gb  PFComponent.o [1]
initTimersPRM1          0xe10210d8    0x24  Code  Gb  PRM1Component.o [1]
initTimersTZNP1         0xe1029530    0x14  Code  Gb  TZNP1Component.o [1]
initTimersUMM           0xe102ab30    0x14  Code  Gb  UMMComponent.o [1]
initTimersUROV          0xe102b340    0x14  Code  Gb  UROVComponent.o [1]
initTimersWL            0xe102e95c     0x4  Code  Gb  WLComponent.o [1]
initTimers_WL           0xe103b8a8    0x48  Code  Gb  logictimers.o [1]
initUstAPV              0xe1024fa8   0x108  Code  Gb  APVComponent.o [1]
initUstDZ1              0xe102762c   0x12c  Code  Gb  DZ1Component.o [1]
initUstDZ2              0xe1022924   0x1b0  Code  Gb  DZ2Component.o [1]
initUstDZ3              0xe102e6ac    0x18  Code  Gb  DZ3Component.o [1]
initUstDZ4              0xe102d83c    0x18  Code  Gb  DZ4Component.o [1]
initUstDZ5              0xe102d488    0x18  Code  Gb  DZ5Component.o [1]
initUstMTZ1             0xe1026c68    0xa8  Code  Gb  MTZ1Component.o [1]
initUstMTZ2             0xe1025c24   0x144  Code  Gb  MTZ2Component.o [1]
initUstMTZ3             0xe102c0f8    0x18  Code  Gb  MTZ3Component.o [1]
initUstMTZ4             0xe102cd20    0x18  Code  Gb  MTZ4Component.o [1]
initUstMTZ5             0xe102c514    0x18  Code  Gb  MTZ5Component.o [1]
initUstNZOP1            0xe1029c14    0xa8  Code  Gb  NZOP1Component.o [1]
initUstNZOP2            0xe102d0bc    0x18  Code  Gb  NZOP2Component.o [1]
initUstOF               0xe1021594   0x1b8  Code  Gb  OFComponent.o [1]
initUstPF               0xe10300a8    0x1c  Code  Gb  PFComponent.o [1]
initUstPRM1             0xe10204b4   0x27c  Code  Gb  PRM1Component.o [1]
initUstTZNP1            0xe102900c    0xcc  Code  Gb  TZNP1Component.o [1]
initUstTZNP2            0xe102c900    0x18  Code  Gb  TZNP2Component.o [1]
initUstTZNP3            0xe102dbec    0x18  Code  Gb  TZNP3Component.o [1]
initUstTZNP4            0xe102df9c    0x18  Code  Gb  TZNP4Component.o [1]
initUstTZNP5            0xe102e34c    0x18  Code  Gb  TZNP5Component.o [1]
initUstUMM              0xe102a68c    0xb4  Code  Gb  UMMComponent.o [1]
initUstUROV             0xe102b150    0x60  Code  Gb  UROVComponent.o [1]
initUstWL               0xe102e8fc    0x1c  Code  Gb  WLComponent.o [1]
int_clear               0xe100e128    0x54  Code  Gb  lpc32xx_intc_driver.o [1]
int_enable              0xe100e0d0    0x58  Code  Gb  lpc32xx_intc_driver.o [1]
int_get_controller      0xe100dd80    0xc0  Code  Lc  lpc32xx_intc_driver.o [1]
int_initialize          0xe100de40   0x144  Code  Gb  lpc32xx_intc_driver.o [1]
int_install_arm_vec_handler
                        0xe100df84    0xe4  Code  Gb  lpc32xx_intc_driver.o [1]
int_install_irq_handler
                        0xe100e068    0x38  Code  Gb  lpc32xx_intc_driver.o [1]
int_write_arm_vec_table
                        0xe100dcec    0x94  Code  Lc  lpc32xx_intc_driver.o [1]
ionsAPV                 0xe1085314    0x30  Data  Gb  APVComponent.o [1]
ionsDZ1                 0xe1085208    0x38  Data  Gb  DZ1Component.o [1]
ionsDZ2                 0xe1084bdc    0x50  Data  Gb  DZ2Component.o [1]
ionsDZ3                 0xe1084c2c    0x50  Data  Gb  DZ3Component.o [1]
ionsDZ4                 0xe1084c7c    0x50  Data  Gb  DZ4Component.o [1]
ionsDZ5                 0xe1084ccc    0x50  Data  Gb  DZ5Component.o [1]
ionsMTZ1                0xe1084fe8    0x40  Data  Gb  MTZ1Component.o [1]
ionsMTZ2                0xe1084678    0x58  Data  Gb  MTZ2Component.o [1]
ionsMTZ3                0xe10846d0    0x58  Data  Gb  MTZ3Component.o [1]
ionsMTZ4                0xe1084728    0x58  Data  Gb  MTZ4Component.o [1]
ionsMTZ5                0xe1084780    0x58  Data  Gb  MTZ5Component.o [1]
ionsNZOP1               0xe1085240    0x38  Data  Gb  NZOP1Component.o [1]
ionsNZOP2               0xe1085278    0x38  Data  Gb  NZOP2Component.o [1]
ionsOF                  0xe1082a30   0x1c0  Data  Gb  OFComponent.o [1]
ionsPF                  0xe1083344    0x80  Data  Gb  PFComponent.o [1]
ionsPRM1                0xe1085344    0x30  Data  Gb  PRM1Component.o [1]
ionsTZNP1               0xe10847d8    0x58  Data  Gb  TZNP1Component.o [1]
ionsTZNP2               0xe1084830    0x58  Data  Gb  TZNP2Component.o [1]
ionsTZNP3               0xe1084888    0x58  Data  Gb  TZNP3Component.o [1]
ionsTZNP4               0xe10848e0    0x58  Data  Gb  TZNP4Component.o [1]
ionsTZNP5               0xe1084938    0x58  Data  Gb  TZNP5Component.o [1]
ionsUMM                 0xe1083784    0x70  Data  Gb  UMMComponent.o [1]
ionsUROV                0xe10858e8    0x20  Data  Gb  UROVComponent.o [1]
ionsWL                  0xe1085c08     0x8  Data  Gb  WLComponent.o [1]
irq_func_ptrs           0xe10ab19c   0x180  Data  Gb  lpc32xx_intc_driver.o [1]
isActivCmdDV            0xe1014104    0x5c  Code  Gb  SettingIci_Rangir.o [1]
isActivCmdLed           0xe10141bc    0x5c  Code  Gb  SettingIci_Rangir.o [1]
isActivCmdRele          0xe1014160    0x5c  Code  Gb  SettingIci_Rangir.o [1]
isActivityDIS           0xe103caa8    0x54  Code  Gb  toSpeedDIS.o [1]
isDISactiv_APV          0xe10256f4    0x5c  Code  Gb  APVComponent.o [1]
isDISactiv_DZ1          0xe1027ef0     0xc  Code  Gb  DZ1Component.o [1]
isDISactiv_DZ2to5       0xe10239ac     0xc  Code  Gb  DZ2Component.o [1]
isDISactiv_MTZ1         0xe1027140    0x5c  Code  Gb  MTZ1Component.o [1]
isDISactiv_MTZ2to5      0xe10265a0     0xc  Code  Gb  MTZ2Component.o [1]
isDISactiv_NZOP1to2     0xe102a108     0xc  Code  Gb  NZOP1Component.o [1]
isDISactiv_OF           0xe10227a0     0xc  Code  Gb  OFComponent.o [1]
isDISactiv_PF           0xe1030108     0xc  Code  Gb  PFComponent.o [1]
isDISactiv_PRM1         0xe1021128    0x48  Code  Gb  PRM1Component.o [1]
isDISactiv_TZNP1to5     0xe1029610     0xc  Code  Gb  TZNP1Component.o [1]
isDISactiv_UMM          0xe102ab70     0xc  Code  Gb  UMMComponent.o [1]
isDISactiv_UROV         0xe102b380     0xc  Code  Gb  UROVComponent.o [1]
isDISactiv_WL           0xe102e96c     0xc  Code  Gb  WLComponent.o [1]
isFAILU_COMMON_DZ       0xe10aceb0     0x4  Data  Gb  psupervisor.o [1]
isFAILU_COMMON_MTZ      0xe10aceac     0x4  Data  Gb  psupervisor.o [1]
isFAILU_DZ              0xe10aceb4     0x4  Data  Gb  psupervisor.o [1]
isNewZonaMethodVRT      0xe1003944  0x12f0  Code  Gb  isNewZonaMethodVRT.o [1]
isRunWL                 0xe1085c48     0x4  Data  Gb  periodOperations.o [1]
isTimeSection           0xe10ad0e0     0x4  Data  Gb  translateI.o [1]
isTimerDelta            0xe103b97c    0x20  Code  Gb  logictimers.o [1]
isTriangleZonaBD        0xe10ac550    0x28  Data  Gb  isNewZonaMethodVRT.o [1]
isValidZonaDZ1MF        0xe10acc98     0x4  Data  Gb  DZ1Component.o [1]
isValidZonaDZ1OF        0xe10acc94     0x4  Data  Gb  DZ1Component.o [1]
isValidZonaDZ2MF        0xe10acca4     0x4  Data  Gb  DZ2Component.o [1]
isValidZonaDZ2OF        0xe10acca0     0x4  Data  Gb  DZ2Component.o [1]
isValidZonaDZ3MF        0xe10accac     0x4  Data  Gb  DZ2Component.o [1]
isValidZonaDZ3OF        0xe10acca8     0x4  Data  Gb  DZ2Component.o [1]
isValidZonaDZ4MF        0xe10accb4     0x4  Data  Gb  DZ2Component.o [1]
isValidZonaDZ4OF        0xe10accb0     0x4  Data  Gb  DZ2Component.o [1]
isValidZonaDZ5MF        0xe10accbc     0x4  Data  Gb  DZ2Component.o [1]
isValidZonaDZ5OF        0xe10accb8     0x4  Data  Gb  DZ2Component.o [1]
isViewZMethod_64VRT     0xe103a960   0x514  Code  Gb  toSpeedZonaVRT.o [1]
isViewZTrianMethod_64VRT
                        0xe103ae74   0x570  Code  Gb  toSpeedZonaVRT.o [1]
isZonaBD                0xe10abf1c    0x80  Data  Gb  isNewZonaMethodVRT.o [1]
isZonaTrianMethodVRT    0xe1023b90   0xcf8  Code  Gb  isZonaTrianMethodVRT.o [1]
koordXZ_64              0xe1085b80     0x8  Data  Gb  isNewZonaMethodVRT.o [1]
koordYZ_64              0xe1085b88     0x8  Data  Gb  isNewZonaMethodVRT.o [1]
lAmtScanChnlM2mErrors   0xe10acc38     0x4  Data  Gb  AppCn.o [1]
lAmtScanChnlSpiErrors   0xe10acc34     0x4  Data  Gb  AppCn.o [1]
lBlockSpiCtr            0xe1085c4c     0x4  Data  Gb  ssp1.o [1]
lCtrSuccExch            0xe10acd3c     0x4  Data  Gb  lpu.o [1]
lDemo_3I0               0xe10acefc     0x4  Data  Gb  SettingIci_data.o [1]
lDemo_3U0               0xe10acf00     0x4  Data  Gb  SettingIci_data.o [1]
lDemo_IA                0xe10acec0     0x4  Data  Gb  SettingIci_data.o [1]
lDemo_IB                0xe10acec4     0x4  Data  Gb  SettingIci_data.o [1]
lDemo_IC                0xe10acec8     0x4  Data  Gb  SettingIci_data.o [1]
lDemo_UA                0xe10acecc     0x4  Data  Gb  SettingIci_data.o [1]
lDemo_UB                0xe10aced0     0x4  Data  Gb  SettingIci_data.o [1]
lDemo_UC                0xe10aced4     0x4  Data  Gb  SettingIci_data.o [1]
lDemo_ULA               0xe10aced8     0x4  Data  Gb  SettingIci_data.o [1]
lDemo_ULB               0xe10acedc     0x4  Data  Gb  SettingIci_data.o [1]
lDemo_ULC               0xe10acee0     0x4  Data  Gb  SettingIci_data.o [1]
lInhs2_send_cb          0xe10accf0     0x4  Data  Lc  hu2l.o [1]
lInitStateCnl           0xe10acf74     0x4  Data  Lc  ssp1L.o [1]
lLast_Copy_tosend       0xe10accec     0x4  Data  Lc  hu2l.o [1]
lMaxTimeTransmit        0xe10acccc     0x4  Data  Gb  hu2l.o [1]
lMtz1                   0xe10acee4     0x4  Data  Gb  SettingIci_data.o [1]
lMtz1Tmr                0xe10acee8     0x4  Data  Gb  SettingIci_data.o [1]
lS                      0xe10acf50     0x4  Data  Lc  ssp1L.o [1]
lSpiAccessCtrl          0xe1085c50     0x4  Data  Gb  ssp1L.o [1]
lSsp0HdwState           0xe10acf70     0x4  Data  Gb  ssp1L.o [1]
lSt1                    0xe10aceec     0x4  Data  Gb  SettingIci_data.o [1]
lSt2                    0xe10acef0     0x4  Data  Gb  SettingIci_data.o [1]
lTmrActivitySpi         0xe1085c28     0x4  Data  Gb  ici_api.o [1]
lTmrDisableHSU2         0xe10accc4     0x4  Data  Gb  hu2.o [1]
lTmrEnblTrSpi           0xe10acd38     0x4  Data  Gb  lpu.o [1]
lTmrHSU2Val             0xe10accc8     0x4  Data  Gb  hu2.o [1]
l_Abs_Numerator_Br      0xe10acd48     0x4  Data  Gb  lpu.o [1]
l_IdxAWthCmdBuf         0xe10acd54     0x4  Data  Gb  lpu.o [1]
l_IdxAWthCmdBufGet      0xe10acd4c     0x4  Data  Gb  lpu.o [1]
l_time_lable            0xe10acd50     0x4  Data  Gb  lpu.o [1]
llBuidNumber            0xe1032b68     0x8  Data  Gb  AppCn.o [1]
llIarVersion            0xe1032b60     0x8  Data  Gb  AppCn.o [1]
logMassTimer            0xe10a8238   0x4b0  Data  Gb  logictimers.o [1]
logMassTimer_WL         0xe10a2378   0x190  Data  Gb  logictimers.o [1]
logicAPV                0xe103e0d0   0xefc  Code  Gb  logicAPV.o [1]
logicDZ1                0xe1043dac   0x4a0  Code  Gb  logicDZ1.o [1]
logicDZ2to5             0xe1038fa4  0x19bc  Code  Gb  logicDZ2to5.o [1]
logicMTZ1               0xe10424a4   0x760  Code  Gb  logicMTZ1.o [1]
logicMTZ2to5            0xe1041954   0xb50  Code  Gb  logicMTZ2to5.o [1]
logicNZOP1to2           0xe10445f0   0x26c  Code  Gb  logicNZOP1to2.o [1]
logicOF                 0xe1040c50   0xd04  Code  Gb  logicOF.o [1]
logicPF                 0xe1044f8c     0x4  Code  Gb  logicPF.o [1]
logicPRM1               0xe1044d60   0x12c  Code  Gb  logicPRM1.o [1]
logicTZNP1to5           0xe1042c04   0x658  Code  Gb  logicTZNP1to5.o [1]
logicUMM                0xe10280a8   0xbe8  Code  Gb  logicUMM.o [1]
logicUROV               0xe1044a50   0x1d8  Code  Gb  logicUROV.o [1]
logicWL                 0xe1044f78    0x10  Code  Gb  logicWL.o [1]
lpc32xx_fiq_handler     0xe102fe0c          Code  Gb  lpc32xx_vectors.o [1]
lpc32xx_irq_handler     0xe102fd4c          Code  Gb  lpc32xx_vectors.o [1]
lpc32xx_reset_vector    0xe102fcfc          Code  Gb  lpc32xx_vectors.o [1]
lst3                    0xe10acef4     0x4  Data  Gb  SettingIci_data.o [1]
lst4                    0xe10acef8     0x4  Data  Gb  SettingIci_data.o [1]
main                    0xe100a310    0x14  Code  Gb  main.o [1]
makeLenVectorVRT        0xe10060d8    0x24  Code  Gb  isNewZonaMethodVRT.o [1]
makeLineVVRT            0xe1005df8    0x94  Code  Gb  isNewZonaMethodVRT.o [1]
makeNormalVectorVRT     0xe1004d54    0x60  Code  Gb  isNewZonaMethodVRT.o [1]
makeUgolVectorVRT       0xe1004db8    0x80  Code  Gb  isNewZonaMethodVRT.o [1]
makeVozvCrossPointVRT   0xe1005ef4   0x1d4  Code  Gb  isNewZonaMethodVRT.o [1]
makeVozvPointVRT        0xe1004f28   0xec0  Code  Gb  isNewZonaMethodVRT.o [1]
makeXPVRT               0xe10060c8    0x10  Code  Gb  isNewZonaMethodVRT.o [1]
maskaReleBO             0xe10acea4     0x4  Data  Gb  psupervisor.o [1]
maskaReleBV             0xe10acea8     0x4  Data  Gb  psupervisor.o [1]
meas_data_rdy           0xe10ad123     0x1  Data  Gb  ici_api.o [1]
meas_protection         0xe10a9e48   0x23c  Data  Gb  AppCn.o [1]
memchr                  0xe1012ec8          Code  Gb  memchr.o [5]
memcmp                  0xe100ccfc          Code  Gb  memcmp.o [5]
menu_context            0xe10a9988   0x274  Data  Gb  systemMenu.o [1]
missionCicling          0xe10acc88     0x4  Data  Gb  cicloGrammaEEPROM1.o [1]
missionSeparatorDEVICE1
                        0xe10ad10c     0x2  Data  Gb  callBackElement.o [1]
missionSeparatorDEVICE2
                        0xe10ad10e     0x2  Data  Gb  callBackElement.o [1]
mngUSTAVKI              0xe10a50dc   0x7dc  Data  Gb  ustmanager.o [1]
mngUSTAVKI_WL           0xe10aace0   0x19c  Data  Gb  ustmanager.o [1]
nVector12_64vrt         0xe10ac848    0x10  Data  Gb  isNewZonaMethodVRT.o [1]
nVector12_64vrtBD       0xe10ab7e0    0xa0  Data  Gb  isNewZonaMethodVRT.o [1]
nVector12vrt            0xe10ac838    0x10  Data  Gb  isNewZonaMethodVRT.o [1]
nVector13_64vrt         0xe10ac928    0x10  Data  Gb  isZonaTrianMethodVRT.o [1]
nVector13_64vrtBD       0xe10abc40    0xa0  Data  Gb  isZonaTrianMethodVRT.o [1]
nVector13vrt            0xe10ac918    0x10  Data  Gb  isZonaTrianMethodVRT.o [1]
nVector14_64vrt         0xe10ac868    0x10  Data  Gb  isNewZonaMethodVRT.o [1]
nVector14_64vrtBD       0xe10ab880    0xa0  Data  Gb  isNewZonaMethodVRT.o [1]
nVector14vrt            0xe10ac858    0x10  Data  Gb  isNewZonaMethodVRT.o [1]
nVector21_64vrt         0xe10ac8e8    0x10  Data  Gb  isNewZonaMethodVRT.o [1]
nVector21_64vrtBD       0xe10abb00    0xa0  Data  Gb  isNewZonaMethodVRT.o [1]
nVector21vrt            0xe10ac8d8    0x10  Data  Gb  isNewZonaMethodVRT.o [1]
nVector23_64vrt         0xe10ac8c8    0x10  Data  Gb  isNewZonaMethodVRT.o [1]
nVector23_64vrtBD       0xe10aba60    0xa0  Data  Gb  isNewZonaMethodVRT.o [1]
nVector23vrt            0xe10ac8b8    0x10  Data  Gb  isNewZonaMethodVRT.o [1]
nVector31_64vrt         0xe10ac908    0x10  Data  Gb  isZonaTrianMethodVRT.o [1]
nVector31_64vrtBD       0xe10abba0    0xa0  Data  Gb  isZonaTrianMethodVRT.o [1]
nVector31vrt            0xe10ac8f8    0x10  Data  Gb  isZonaTrianMethodVRT.o [1]
nVector32_64vrt         0xe10ac828    0x10  Data  Gb  isNewZonaMethodVRT.o [1]
nVector32_64vrtBD       0xe10ab740    0xa0  Data  Gb  isNewZonaMethodVRT.o [1]
nVector32vrt            0xe10ac818    0x10  Data  Gb  isNewZonaMethodVRT.o [1]
nVector34_64vrt         0xe10ac808    0x10  Data  Gb  isNewZonaMethodVRT.o [1]
nVector34_64vrtBD       0xe10ab6a0    0xa0  Data  Gb  isNewZonaMethodVRT.o [1]
nVector34vrt            0xe10ac7f8    0x10  Data  Gb  isNewZonaMethodVRT.o [1]
nVector41_64vrt         0xe10ac888    0x10  Data  Gb  isNewZonaMethodVRT.o [1]
nVector41_64vrtBD       0xe10ab920    0xa0  Data  Gb  isNewZonaMethodVRT.o [1]
nVector41vrt            0xe10ac878    0x10  Data  Gb  isNewZonaMethodVRT.o [1]
nVector43_64vrt         0xe10ac8a8    0x10  Data  Gb  isNewZonaMethodVRT.o [1]
nVector43_64vrtBD       0xe10ab9c0    0xa0  Data  Gb  isNewZonaMethodVRT.o [1]
nVector43vrt            0xe10ac898    0x10  Data  Gb  isNewZonaMethodVRT.o [1]
nameStatusRANGIR        0xe1085c60  0x5568  Data  Gb  rangmanager.o [1]
nameStupenDZ            0xe1085ac0    0x14  Data  Gb  DZPacket.o [1]
nameStupenMTZ           0xe1085ae8    0x14  Data  Gb  MTZPacket.o [1]
nameStupenNZOP          0xe1085bc8     0x8  Data  Gb  NZOPPacket.o [1]
nameStupenTZNP          0xe1085afc    0x14  Data  Gb  TZNPPacket.o [1]
newsub_menu_cnf_Line1   0xe1008fc8     0x4  Code  Gb  ViewMenuCnf.o [1]
newsub_menu_cnfwl_Line1
                        0xe1008ff0   0x144  Code  Gb  ViewMenuCnf.o [1]
offsetENACmdPRM1        0xe10ace74     0x4  Data  Gb  PRM1Component.o [1]
offsetIOCmdAPV          0xe10acc78     0x4  Data  Gb  APVComponent.o [1]
offsetIOCmdDZ1          0xe10acc90     0x4  Data  Gb  DZ1Component.o [1]
offsetIOCmdDZ5          0xe10acc9c     0x4  Data  Gb  DZ2Component.o [1]
offsetIOCmdMTZ1         0xe10ace38     0x4  Data  Gb  MTZ1Component.o [1]
offsetIOCmdMTZ5         0xe10ace3c     0x4  Data  Gb  MTZ2Component.o [1]
offsetIOCmdNZOP2        0xe10ace44     0x4  Data  Gb  NZOP1Component.o [1]
offsetIOCmdOF           0xe10ace48     0x4  Data  Gb  OFComponent.o [1]
offsetIOCmdOF_loc       0xe10ace4c     0x4  Data  Gb  OFComponent.o [1]
offsetIOCmdPF           0xe10ace68     0x4  Data  Gb  PFComponent.o [1]
offsetIOCmdPF_loc       0xe10ace6c     0x4  Data  Gb  PFComponent.o [1]
offsetIOCmdPRM1         0xe10ace70     0x4  Data  Gb  PRM1Component.o [1]
offsetIOCmdTZNP5        0xe10ad0e4     0x4  Data  Gb  TZNP1Component.o [1]
offsetIOCmdUMM          0xe10ad0ec     0x4  Data  Gb  UMMComponent.o [1]
offsetIOCmdUROV         0xe10ad0f0     0x4  Data  Gb  UROVComponent.o [1]
offsetIOCmdWL           0xe10ad108     0x4  Data  Gb  WLComponent.o [1]
offsetSPVCmdPRM1        0xe10ace78     0x4  Data  Gb  PRM1Component.o [1]
offsetTimersPRM1        0xe10ace7c     0x4  Data  Gb  PRM1Component.o [1]
offsetUstMngPRM1        0xe10ace80     0x4  Data  Gb  PRM1Component.o [1]
oldDIS                  0xe10ac690    0x28  Data  Gb  toSpeedDIS.o [1]
oldDV1                  0xe10acda4     0x4  Data  Gb  main.o [1]
oldDV10                 0xe10acdc8     0x4  Data  Gb  main.o [1]
oldDV11                 0xe10acdcc     0x4  Data  Gb  main.o [1]
oldDV12                 0xe10acdd0     0x4  Data  Gb  main.o [1]
oldDV13                 0xe10acdd4     0x4  Data  Gb  main.o [1]
oldDV14                 0xe10acdd8     0x4  Data  Gb  main.o [1]
oldDV15                 0xe10acddc     0x4  Data  Gb  main.o [1]
oldDV16                 0xe10acde0     0x4  Data  Gb  main.o [1]
oldDV17                 0xe10acde4     0x4  Data  Gb  main.o [1]
oldDV18                 0xe10acde8     0x4  Data  Gb  main.o [1]
oldDV19                 0xe10acdec     0x4  Data  Gb  main.o [1]
oldDV2                  0xe10acda8     0x4  Data  Gb  main.o [1]
oldDV20                 0xe10acdf0     0x4  Data  Gb  main.o [1]
oldDV21                 0xe10acdf4     0x4  Data  Gb  main.o [1]
oldDV22                 0xe10acdf8     0x4  Data  Gb  main.o [1]
oldDV23                 0xe10acdfc     0x4  Data  Gb  main.o [1]
oldDV24                 0xe10ace00     0x4  Data  Gb  main.o [1]
oldDV25                 0xe10ace04     0x4  Data  Gb  main.o [1]
oldDV26                 0xe10ace08     0x4  Data  Gb  main.o [1]
oldDV27                 0xe10ace0c     0x4  Data  Gb  main.o [1]
oldDV28                 0xe10ace10     0x4  Data  Gb  main.o [1]
oldDV29                 0xe10ace14     0x4  Data  Gb  main.o [1]
oldDV3                  0xe10acdac     0x4  Data  Gb  main.o [1]
oldDV30                 0xe10ace18     0x4  Data  Gb  main.o [1]
oldDV31                 0xe10ace1c     0x4  Data  Gb  main.o [1]
oldDV32                 0xe10ace20     0x4  Data  Gb  main.o [1]
oldDV33                 0xe10ace24     0x4  Data  Gb  main.o [1]
oldDV34                 0xe10ace28     0x4  Data  Gb  main.o [1]
oldDV35                 0xe10ace2c     0x4  Data  Gb  main.o [1]
oldDV36                 0xe10ace30     0x4  Data  Gb  main.o [1]
oldDV4                  0xe10acdb0     0x4  Data  Gb  main.o [1]
oldDV5                  0xe10acdb4     0x4  Data  Gb  main.o [1]
oldDV6                  0xe10acdb8     0x4  Data  Gb  main.o [1]
oldDV7                  0xe10acdbc     0x4  Data  Gb  main.o [1]
oldDV8                  0xe10acdc0     0x4  Data  Gb  main.o [1]
oldDV9                  0xe10acdc4     0x4  Data  Gb  main.o [1]
outU2                   0xe10439ec   0x15c  Code  Gb  hu2l.o [1]
pAPVcmdMaska            0xe10ac5f0    0x28  Data  Gb  toSpeedDIS.o [1]
pActualCMD              0xe10abffc    0x50  Data  Gb  rangmanager.o [1]
pRDIScmdActual          0xe10ac640    0x28  Data  Gb  toSpeedDIS.o [1]
pRDIScmdMaska           0xe10ac618    0x28  Data  Gb  toSpeedDIS.o [1]
pRDIScmdOld             0xe10ac668    0x28  Data  Gb  toSpeedDIS.o [1]
pUROVcmdMaska           0xe10ac5c8    0x28  Data  Gb  toSpeedDIS.o [1]
periodical_operations   0xe100cf2c   0x760  Code  Gb  periodOperations.o [1]
pfWorker1               0xe1008bd4    0x20  Code  Gb  psvisor_help.o [1]
pfWorker2               0xe1008bf4    0x54  Code  Gb  psvisor_help.o [1]
pfWorker3               0xe1008c48    0x28  Code  Gb  psvisor_help.o [1]
pfWorker4               0xe1008c70    0x28  Code  Gb  psvisor_help.o [1]
pfWorker5               0xe103325c    0x28  Code  Gb  toSpeedOptim.o [1]
pll_postdivs            0xe1085b24    0x10  Data  Lc  lpc32xx_clkpwr_driver.o [1]
prepareUstAPV           0xe10250b0   0x5c4  Code  Gb  APVComponent.o [1]
prepareUstDZ1           0xe1027758   0x650  Code  Gb  DZ1Component.o [1]
prepareUstDZ2           0xe1022ad4   0x918  Code  Gb  DZ2Component.o [1]
prepareUstDZ3           0xe102e6c4    0x1c  Code  Gb  DZ3Component.o [1]
prepareUstDZ4           0xe102d854    0x1c  Code  Gb  DZ4Component.o [1]
prepareUstDZ5           0xe102d4a0    0x1c  Code  Gb  DZ5Component.o [1]
prepareUstMTZ1          0xe1026d10   0x310  Code  Gb  MTZ1Component.o [1]
prepareUstMTZ2          0xe1025d68   0x70c  Code  Gb  MTZ2Component.o [1]
prepareUstMTZ3          0xe102c110    0x1c  Code  Gb  MTZ3Component.o [1]
prepareUstMTZ4          0xe102cd38    0x1c  Code  Gb  MTZ4Component.o [1]
prepareUstMTZ5          0xe102c52c    0x1c  Code  Gb  MTZ5Component.o [1]
prepareUstNZOP1         0xe1029cbc   0x32c  Code  Gb  NZOP1Component.o [1]
prepareUstNZOP2         0xe102d0d4    0x1c  Code  Gb  NZOP2Component.o [1]
prepareUstOF            0xe1021768   0xf8c  Code  Gb  OFComponent.o [1]
prepareUstPF            0xe10300c4     0x4  Code  Gb  PFComponent.o [1]
prepareUstPRM1          0xe10207a8   0x8e0  Code  Gb  PRM1Component.o [1]
prepareUstTZNP1         0xe10290d8   0x418  Code  Gb  TZNP1Component.o [1]
prepareUstTZNP2         0xe102c918    0x1c  Code  Gb  TZNP2Component.o [1]
prepareUstTZNP3         0xe102dc04    0x1c  Code  Gb  TZNP3Component.o [1]
prepareUstTZNP4         0xe102dfb4    0x1c  Code  Gb  TZNP4Component.o [1]
prepareUstTZNP5         0xe102e364    0x1c  Code  Gb  TZNP5Component.o [1]
prepareUstUMM           0xe102a740   0x3b0  Code  Gb  UMMComponent.o [1]
prepareUstUROV          0xe102b1b0   0x150  Code  Gb  UROVComponent.o [1]
prepareUstWL            0xe102e918     0x4  Code  Gb  WLComponent.o [1]
pusk1OF                 0xe10acf80     0x4  Data  Gb  toSpeedDIS.o [1]
pusk1OF10               0xe10acfec     0x4  Data  Gb  toSpeedDIS.o [1]
pusk1OF11               0xe10acff8     0x4  Data  Gb  toSpeedDIS.o [1]
pusk1OF12               0xe10ad004     0x4  Data  Gb  toSpeedDIS.o [1]
pusk1OF13               0xe10ad010     0x4  Data  Gb  toSpeedDIS.o [1]
pusk1OF14               0xe10ad01c     0x4  Data  Gb  toSpeedDIS.o [1]
pusk1OF15               0xe10ad028     0x4  Data  Gb  toSpeedDIS.o [1]
pusk1OF16               0xe10ad034     0x4  Data  Gb  toSpeedDIS.o [1]
pusk1OF2                0xe10acf8c     0x4  Data  Gb  toSpeedDIS.o [1]
pusk1OF3                0xe10acf98     0x4  Data  Gb  toSpeedDIS.o [1]
pusk1OF4                0xe10acfa4     0x4  Data  Gb  toSpeedDIS.o [1]
pusk1OF5                0xe10acfb0     0x4  Data  Gb  toSpeedDIS.o [1]
pusk1OF6                0xe10acfbc     0x4  Data  Gb  toSpeedDIS.o [1]
pusk1OF7                0xe10acfc8     0x4  Data  Gb  toSpeedDIS.o [1]
pusk1OF8                0xe10acfd4     0x4  Data  Gb  toSpeedDIS.o [1]
pusk1OF9                0xe10acfe0     0x4  Data  Gb  toSpeedDIS.o [1]
pusk1OT1                0xe10ad040     0x4  Data  Gb  toSpeedDIS.o [1]
pusk1OT2                0xe10ad048     0x4  Data  Gb  toSpeedDIS.o [1]
pusk1OT3                0xe10ad050     0x4  Data  Gb  toSpeedDIS.o [1]
pusk1OT4                0xe10ad058     0x4  Data  Gb  toSpeedDIS.o [1]
pusk1OT5                0xe10ad060     0x4  Data  Gb  toSpeedDIS.o [1]
pusk1OT6                0xe10ad068     0x4  Data  Gb  toSpeedDIS.o [1]
pusk1OT7                0xe10ad070     0x4  Data  Gb  toSpeedDIS.o [1]
pusk1OT8                0xe10ad078     0x4  Data  Gb  toSpeedDIS.o [1]
pusk2OF                 0xe10acf84     0x4  Data  Gb  toSpeedDIS.o [1]
pusk2OF10               0xe10acff0     0x4  Data  Gb  toSpeedDIS.o [1]
pusk2OF11               0xe10acffc     0x4  Data  Gb  toSpeedDIS.o [1]
pusk2OF12               0xe10ad008     0x4  Data  Gb  toSpeedDIS.o [1]
pusk2OF13               0xe10ad014     0x4  Data  Gb  toSpeedDIS.o [1]
pusk2OF14               0xe10ad020     0x4  Data  Gb  toSpeedDIS.o [1]
pusk2OF15               0xe10ad02c     0x4  Data  Gb  toSpeedDIS.o [1]
pusk2OF16               0xe10ad038     0x4  Data  Gb  toSpeedDIS.o [1]
pusk2OF2                0xe10acf90     0x4  Data  Gb  toSpeedDIS.o [1]
pusk2OF3                0xe10acf9c     0x4  Data  Gb  toSpeedDIS.o [1]
pusk2OF4                0xe10acfa8     0x4  Data  Gb  toSpeedDIS.o [1]
pusk2OF5                0xe10acfb4     0x4  Data  Gb  toSpeedDIS.o [1]
pusk2OF6                0xe10acfc0     0x4  Data  Gb  toSpeedDIS.o [1]
pusk2OF7                0xe10acfcc     0x4  Data  Gb  toSpeedDIS.o [1]
pusk2OF8                0xe10acfd8     0x4  Data  Gb  toSpeedDIS.o [1]
pusk2OF9                0xe10acfe4     0x4  Data  Gb  toSpeedDIS.o [1]
pusk2OT1                0xe10ad044     0x4  Data  Gb  toSpeedDIS.o [1]
pusk2OT2                0xe10ad04c     0x4  Data  Gb  toSpeedDIS.o [1]
pusk2OT3                0xe10ad054     0x4  Data  Gb  toSpeedDIS.o [1]
pusk2OT4                0xe10ad05c     0x4  Data  Gb  toSpeedDIS.o [1]
pusk2OT5                0xe10ad064     0x4  Data  Gb  toSpeedDIS.o [1]
pusk2OT6                0xe10ad06c     0x4  Data  Gb  toSpeedDIS.o [1]
pusk2OT7                0xe10ad074     0x4  Data  Gb  toSpeedDIS.o [1]
pusk2OT8                0xe10ad07c     0x4  Data  Gb  toSpeedDIS.o [1]
pusk3OF                 0xe10acf88     0x4  Data  Gb  toSpeedDIS.o [1]
pusk3OF10               0xe10acff4     0x4  Data  Gb  toSpeedDIS.o [1]
pusk3OF11               0xe10ad000     0x4  Data  Gb  toSpeedDIS.o [1]
pusk3OF12               0xe10ad00c     0x4  Data  Gb  toSpeedDIS.o [1]
pusk3OF13               0xe10ad018     0x4  Data  Gb  toSpeedDIS.o [1]
pusk3OF14               0xe10ad024     0x4  Data  Gb  toSpeedDIS.o [1]
pusk3OF15               0xe10ad030     0x4  Data  Gb  toSpeedDIS.o [1]
pusk3OF16               0xe10ad03c     0x4  Data  Gb  toSpeedDIS.o [1]
pusk3OF2                0xe10acf94     0x4  Data  Gb  toSpeedDIS.o [1]
pusk3OF3                0xe10acfa0     0x4  Data  Gb  toSpeedDIS.o [1]
pusk3OF4                0xe10acfac     0x4  Data  Gb  toSpeedDIS.o [1]
pusk3OF5                0xe10acfb8     0x4  Data  Gb  toSpeedDIS.o [1]
pusk3OF6                0xe10acfc4     0x4  Data  Gb  toSpeedDIS.o [1]
pusk3OF7                0xe10acfd0     0x4  Data  Gb  toSpeedDIS.o [1]
pusk3OF8                0xe10acfdc     0x4  Data  Gb  toSpeedDIS.o [1]
pusk3OF9                0xe10acfe8     0x4  Data  Gb  toSpeedDIS.o [1]
puskAPV                 0xe10acf78     0x4  Data  Gb  toSpeedDIS.o [1]
puskAPVotZ              0xe1018804    0x58  Code  Gb  SettingIci_APV.o [1]
puskOFModern            0xe1019be8    0x50  Code  Gb  SettingIci_OF.o [1]
puskOFotZBLK            0xe1019d40    0x5c  Code  Gb  SettingIci_OF.o [1]
puskOFotZMINUS          0xe1019ce4    0x5c  Code  Gb  SettingIci_OF.o [1]
puskOFotZPLUS           0xe1019c88    0x5c  Code  Gb  SettingIci_OF.o [1]
puskOTModern            0xe1019c38    0x50  Code  Gb  SettingIci_OF.o [1]
puskRstOTotZMINUS       0xe1019eb0    0x5c  Code  Gb  SettingIci_OF.o [1]
puskRstOTotZPLUS        0xe1019e54    0x5c  Code  Gb  SettingIci_OF.o [1]
puskSetOTotZMINUS       0xe1019df8    0x5c  Code  Gb  SettingIci_OF.o [1]
puskSetOTotZPLUS        0xe1019d9c    0x5c  Code  Gb  SettingIci_OF.o [1]
puskUROV                0xe10acf7c     0x4  Data  Gb  toSpeedDIS.o [1]
puskUROVotZ             0xe1019240    0x58  Code  Gb  SettingIci_UROV.o [1]
rawDVHi                 0xe10acda0     0x4  Data  Gb  main.o [1]
rawDVLow                0xe10acd98     0x4  Data  Gb  main.o [1]
rawDVMidd               0xe10acd9c     0x4  Data  Gb  main.o [1]
recv_cb_spi1            0xe1040918   0x108  Code  Gb  ssp1L.o [1]
recv_cb_ssp_Dma         0xe1010db0    0x60  Code  Gb  ssp1.o [1]
registrator_dis         0xe10a0720  0x1168  Data  Gb  toSpeedDIS.o [1]
rele_bdvv1              0xe10ace54     0x4  Data  Gb  periodOperations.o [1]
resistance_fA0X1        0xe10acaf8     0x8  Data  Gb  SettingIci_data.o [1]
resistance_fA0X2        0xe10acb28     0x8  Data  Gb  SettingIci_data.o [1]
resistance_fA0X3        0xe10acb58     0x8  Data  Gb  SettingIci_data.o [1]
resistance_fA0X4        0xe10acb88     0x8  Data  Gb  SettingIci_data.o [1]
resistance_fA0X5        0xe10acbb8     0x8  Data  Gb  SettingIci_data.o [1]
resistance_fA0Y1        0xe10acb00     0x8  Data  Gb  SettingIci_data.o [1]
resistance_fA0Y2        0xe10acb30     0x8  Data  Gb  SettingIci_data.o [1]
resistance_fA0Y3        0xe10acb60     0x8  Data  Gb  SettingIci_data.o [1]
resistance_fA0Y4        0xe10acb90     0x8  Data  Gb  SettingIci_data.o [1]
resistance_fA0Y5        0xe10acbc0     0x8  Data  Gb  SettingIci_data.o [1]
resistance_fAMX         0xe10acbe8     0x8  Data  Gb  SettingIci_data.o [1]
resistance_fAMY         0xe10acbf0     0x8  Data  Gb  SettingIci_data.o [1]
resistance_fB0X1        0xe10acb08     0x8  Data  Gb  SettingIci_data.o [1]
resistance_fB0X2        0xe10acb38     0x8  Data  Gb  SettingIci_data.o [1]
resistance_fB0X3        0xe10acb68     0x8  Data  Gb  SettingIci_data.o [1]
resistance_fB0X4        0xe10acb98     0x8  Data  Gb  SettingIci_data.o [1]
resistance_fB0X5        0xe10acbc8     0x8  Data  Gb  SettingIci_data.o [1]
resistance_fB0Y1        0xe10acb10     0x8  Data  Gb  SettingIci_data.o [1]
resistance_fB0Y2        0xe10acb40     0x8  Data  Gb  SettingIci_data.o [1]
resistance_fB0Y3        0xe10acb70     0x8  Data  Gb  SettingIci_data.o [1]
resistance_fB0Y4        0xe10acba0     0x8  Data  Gb  SettingIci_data.o [1]
resistance_fB0Y5        0xe10acbd0     0x8  Data  Gb  SettingIci_data.o [1]
resistance_fBMX         0xe10acbf8     0x8  Data  Gb  SettingIci_data.o [1]
resistance_fBMY         0xe10acc00     0x8  Data  Gb  SettingIci_data.o [1]
resistance_fC0X1        0xe10acb18     0x8  Data  Gb  SettingIci_data.o [1]
resistance_fC0X2        0xe10acb48     0x8  Data  Gb  SettingIci_data.o [1]
resistance_fC0X3        0xe10acb78     0x8  Data  Gb  SettingIci_data.o [1]
resistance_fC0X4        0xe10acba8     0x8  Data  Gb  SettingIci_data.o [1]
resistance_fC0X5        0xe10acbd8     0x8  Data  Gb  SettingIci_data.o [1]
resistance_fC0Y1        0xe10acb20     0x8  Data  Gb  SettingIci_data.o [1]
resistance_fC0Y2        0xe10acb50     0x8  Data  Gb  SettingIci_data.o [1]
resistance_fC0Y3        0xe10acb80     0x8  Data  Gb  SettingIci_data.o [1]
resistance_fC0Y4        0xe10acbb0     0x8  Data  Gb  SettingIci_data.o [1]
resistance_fC0Y5        0xe10acbe0     0x8  Data  Gb  SettingIci_data.o [1]
resistance_fCMX         0xe10acc08     0x8  Data  Gb  SettingIci_data.o [1]
resistance_fCMY         0xe10acc10     0x8  Data  Gb  SettingIci_data.o [1]
restore_partial_VFP_state
                        0xe1013264          Code  Gb  partial_vfp.o [1]
rpzCOMPONENT            0xe1082820   0x210  Data  Gb  ViewRepozit.o [1]
rpzCOMPONENT_WL         0xe10832c0    0x84  Data  Gb  ViewRepozitWL.o [1]
rpzcomponent_obj        0xe10abe00    0x90  Data  Gb  ViewRepozit.o [1]
rst1OT1                 0xe10ad080     0x4  Data  Gb  toSpeedDIS.o [1]
rst1OT2                 0xe10ad088     0x4  Data  Gb  toSpeedDIS.o [1]
rst1OT3                 0xe10ad090     0x4  Data  Gb  toSpeedDIS.o [1]
rst1OT4                 0xe10ad098     0x4  Data  Gb  toSpeedDIS.o [1]
rst1OT5                 0xe10ad0a0     0x4  Data  Gb  toSpeedDIS.o [1]
rst1OT6                 0xe10ad0a8     0x4  Data  Gb  toSpeedDIS.o [1]
rst1OT7                 0xe10ad0b0     0x4  Data  Gb  toSpeedDIS.o [1]
rst1OT8                 0xe10ad0b8     0x4  Data  Gb  toSpeedDIS.o [1]
rst2OT1                 0xe10ad084     0x4  Data  Gb  toSpeedDIS.o [1]
rst2OT2                 0xe10ad08c     0x4  Data  Gb  toSpeedDIS.o [1]
rst2OT3                 0xe10ad094     0x4  Data  Gb  toSpeedDIS.o [1]
rst2OT4                 0xe10ad09c     0x4  Data  Gb  toSpeedDIS.o [1]
rst2OT5                 0xe10ad0a4     0x4  Data  Gb  toSpeedDIS.o [1]
rst2OT6                 0xe10ad0ac     0x4  Data  Gb  toSpeedDIS.o [1]
rst2OT7                 0xe10ad0b4     0x4  Data  Gb  toSpeedDIS.o [1]
rst2OT8                 0xe10ad0bc     0x4  Data  Gb  toSpeedDIS.o [1]
samples_data_rdy        0xe10acd0c     0x4  Data  Gb  ici_api.o [1]
savePARAMtoEEPROM       0xe1019fe0    0x78  Code  Gb  ustavkitoEEPROM.o [1]
save_partial_VFP_state  0xe1013254          Code  Gb  partial_vfp.o [1]
sectorMTZ_IA_N          0xe10acf08     0x4  Data  Gb  SettingIci_data.o [1]
sectorMTZ_IA_V          0xe10acf04     0x4  Data  Gb  SettingIci_data.o [1]
sectorMTZ_IB_N          0xe10acf10     0x4  Data  Gb  SettingIci_data.o [1]
sectorMTZ_IB_V          0xe10acf0c     0x4  Data  Gb  SettingIci_data.o [1]
sectorMTZ_IC_N          0xe10acf18     0x4  Data  Gb  SettingIci_data.o [1]
sectorMTZ_IC_V          0xe10acf14     0x4  Data  Gb  SettingIci_data.o [1]
sectorNZOP1_N           0xe10acf34     0x4  Data  Gb  SettingIci_data.o [1]
sectorNZOP1_V           0xe10acf30     0x4  Data  Gb  SettingIci_data.o [1]
sectorNZOP2_N           0xe10acf3c     0x4  Data  Gb  SettingIci_data.o [1]
sectorNZOP2_V           0xe10acf38     0x4  Data  Gb  SettingIci_data.o [1]
sectorTZNP1             0xe10acf1c     0x4  Data  Gb  SettingIci_data.o [1]
sectorTZNP2             0xe10acf20     0x4  Data  Gb  SettingIci_data.o [1]
sectorTZNP3             0xe10acf24     0x4  Data  Gb  SettingIci_data.o [1]
sectorTZNP4             0xe10acf28     0x4  Data  Gb  SettingIci_data.o [1]
sectorTZNP5             0xe10acf2c     0x4  Data  Gb  SettingIci_data.o [1]
selectorDVHi            0xe10ace64     0x4  Data  Gb  periodOperations.o [1]
selectorDVLow           0xe10ace5c     0x4  Data  Gb  periodOperations.o [1]
selectorDVMidd          0xe10ace60     0x4  Data  Gb  periodOperations.o [1]
selectorUVVHi           0xe10ad0fc     0x4  Data  Gb  ViewMenuRang.o [1]
selectorUVVLow          0xe10ad0f4     0x4  Data  Gb  ViewMenuRang.o [1]
selectorUVVMidd         0xe10ad0f8     0x4  Data  Gb  ViewMenuRang.o [1]
selectorUprStrAPV       0xe1024f6c    0x3c  Code  Gb  APVComponent.o [1]
selectorUprStrDV        0xe102043c    0x3c  Code  Gb  PRM1Component.o [1]
selectorUprStrDZ1       0xe10275f0    0x3c  Code  Gb  DZ1Component.o [1]
selectorUprStrDZ2       0xe10228e8    0x3c  Code  Gb  DZ2Component.o [1]
selectorUprStrMTZ1      0xe1026b34    0x3c  Code  Gb  MTZ1Component.o [1]
selectorUprStrMTZ2      0xe1025be8    0x3c  Code  Gb  MTZ2Component.o [1]
selectorUprStrNZOP1     0xe1029b50    0xc4  Code  Gb  NZOP1Component.o [1]
selectorUprStrOF        0xe1021558    0x3c  Code  Gb  OFComponent.o [1]
selectorUprStrPRM1      0xe1020400    0x3c  Code  Gb  PRM1Component.o [1]
selectorUprStrRELE      0xe1020478    0x3c  Code  Gb  PRM1Component.o [1]
selectorUprStrTZNP1     0xe1028fd0    0x3c  Code  Gb  TZNP1Component.o [1]
selectorUprStrTZNP2     0xe102c8c4    0x3c  Code  Gb  TZNP2Component.o [1]
selectorUprStrUMM       0xe102a5bc    0xd0  Code  Gb  UMMComponent.o [1]
selectorUprStrUROV      0xe102b114    0x3c  Code  Gb  UROVComponent.o [1]
send_cb_spi1            0xe1040a20   0x10c  Code  Gb  ssp1L.o [1]
send_cb_ssp_Dma         0xe1010d3c    0x74  Code  Gb  ssp1.o [1]
setCRCMassiv            0xe1008de8    0x34  Code  Gb  psvisor_help.o [1]
setClonMngUSTAVKI       0xe100b0a4   0x100  Code  Gb  ustmanager.o [1]
setTimerENABLE          0xe103b92c    0x14  Code  Gb  logictimers.o [1]
setTimerENABLE_WL       0xe103b954    0x14  Code  Gb  logictimers.o [1]
setTimerPorog           0xe103b940    0x14  Code  Gb  logictimers.o [1]
setTimerPorog_WL        0xe103b968    0x14  Code  Gb  logictimers.o [1]
shCtrTrLpduSpiTeleMechs
                        0xe10ad116     0x2  Data  Gb  lpu.o [1]
speed_angle_APV         0xe10acf40     0x4  Data  Gb  SettingIci_data.o [1]
spi1_rxbuff             0xe10ff320   0x320  Data  Lc  ssp1L.o [1]
spi1_rxfill             0xe10acf6c     0x4  Data  Gb  ssp1L.o [1]
spi1_rxget              0xe10acf64     0x4  Data  Gb  ssp1L.o [1]
spi1_rxsize             0xe10acf5c     0x4  Data  Gb  ssp1L.o [1]
spi1_txbuff             0xe10ff000   0x320  Data  Lc  ssp1L.o [1]
spi1_txfill             0xe10acf60     0x4  Data  Gb  ssp1L.o [1]
spi1_txget              0xe10acf68     0x4  Data  Gb  ssp1L.o [1]
spi1_txsize             0xe10acf58     0x4  Data  Gb  ssp1L.o [1]
splitUgolSVRT           0xe1004e38    0x34  Code  Gb  isNewZonaMethodVRT.o [1]
sprintf                 0xe100cc74    0x58  Code  Gb  sprintf.o [3]
spvUSTAVKI              0xe10a6038   0x708  Data  Gb  psupervisor.o [1]
sqrt                    0xe1006360          Code  Gb  sqrt.o [4]
sqrtl                   0xe1006360          Code  Gb  sqrt.o [4]
ssp1_hdr_init           0xe1010bfc   0x140  Code  Gb  ssp1.o [1]
ssp1_regptr             0xe10acd5c     0x4  Data  Gb  main.o [1]
sspclks                 0xe10109c2     0x2  Data  Lc  lpcAV1_ssp_driver.o [1]
sspdev0                 0xe10acf54     0x4  Data  Gb  ssp1L.o [1]
sspdrv                  0xe10ac4a0    0x30  Data  Lc  lpcAV1_ssp_driver.o [1]
start_settings          0xe100a324    0x80  Code  Gb  main.o [1]
strcat                  0xe100cccc    0x30  Code  Gb  strcat.o [3]
strchr                  0xe1012ea8          Code  Gb  strchr.o [5]
strcpy                  0xe100cc0c          Code  Gb  strcpy.o [5]
stringList              0xe10a6740   0x600  Data  Gb  main.o [1]
strlen                  0xe10037e0          Code  Gb  strlen.o [5]
strncpy                 0xe1003834          Code  Gb  strncpy.o [5]
struct_maskaOTAPVUROVOFcmd
                        0xe10a58b8   0x780  Data  Gb  toSpeedDIS.o [1]
struct_maskaOTcmd       0xe10a7d38   0x500  Data  Gb  toSpeedDIS.o [1]
sub_menu_DZ             0xe10837f4    0x6c  Data  Gb  DZPacket.o [1]
sub_menu_MTZ            0xe1083860    0x6c  Data  Gb  MTZPacket.o [1]
sub_menu_NZOP           0xe1084e84    0x48  Data  Gb  NZOPPacket.o [1]
sub_menu_TZNP           0xe1083938    0x6c  Data  Gb  TZNPPacket.o [1]
sub_menu_act            0xe10859d0    0x18  Data  Gb  ResetSystemMenu.o [1]
sub_menu_apv            0xe1085a00    0x18  Data  Gb  ResetSystemMenu.o [1]
sub_menu_cdi            0xe1085788    0x24  Data  Gb  ResetSystemMenu.o [1]
sub_menu_cnf            0xe1082328   0x27c  Data  Gb  ResetSystemMenu.o [1]
sub_menu_cnfwl          0xe1082edc    0x9c  Data  Gb  ResetSystemMenu.o [1]
sub_menu_cntr           0xe1084f5c    0x48  Data  Gb  ResetSystemMenu.o [1]
sub_menu_comp_APV       0xe1083ad8    0x60  Data  Gb  APVComponent.o [1]
sub_menu_comp_DZ1       0xe1083b38    0x60  Data  Gb  DZ1Component.o [1]
sub_menu_comp_DZ2       0xe1083b98    0x60  Data  Gb  DZ2Component.o [1]
sub_menu_comp_DZ3       0xe1083bf8    0x60  Data  Gb  DZ3Component.o [1]
sub_menu_comp_DZ4       0xe1083c58    0x60  Data  Gb  DZ4Component.o [1]
sub_menu_comp_DZ5       0xe1083d18    0x60  Data  Gb  DZ5Component.o [1]
sub_menu_comp_MTZ1      0xe1083dd8    0x60  Data  Gb  MTZ1Component.o [1]
sub_menu_comp_MTZ2      0xe1083e98    0x60  Data  Gb  MTZ2Component.o [1]
sub_menu_comp_MTZ3      0xe1083f58    0x60  Data  Gb  MTZ3Component.o [1]
sub_menu_comp_MTZ4      0xe1084018    0x60  Data  Gb  MTZ4Component.o [1]
sub_menu_comp_MTZ5      0xe10840d8    0x60  Data  Gb  MTZ5Component.o [1]
sub_menu_comp_NZOP1     0xe1084198    0x60  Data  Gb  NZOP1Component.o [1]
sub_menu_comp_NZOP2     0xe10841f8    0x60  Data  Gb  NZOP2Component.o [1]
sub_menu_comp_OF        0xe1084258    0x60  Data  Gb  OFComponent.o [1]
sub_menu_comp_PF        0xe10842b8    0x60  Data  Gb  PFComponent.o [1]
sub_menu_comp_PRM1      0xe1084318    0x60  Data  Gb  PRM1Component.o [1]
sub_menu_comp_TZNP1     0xe1084378    0x60  Data  Gb  TZNP1Component.o [1]
sub_menu_comp_TZNP2     0xe10843d8    0x60  Data  Gb  TZNP2Component.o [1]
sub_menu_comp_TZNP3     0xe1084438    0x60  Data  Gb  TZNP3Component.o [1]
sub_menu_comp_TZNP4     0xe1084498    0x60  Data  Gb  TZNP4Component.o [1]
sub_menu_comp_TZNP5     0xe10844f8    0x60  Data  Gb  TZNP5Component.o [1]
sub_menu_comp_UMM       0xe1084558    0x60  Data  Gb  UMMComponent.o [1]
sub_menu_comp_UROV      0xe10845b8    0x60  Data  Gb  UROVComponent.o [1]
sub_menu_comp_WL        0xe1084618    0x60  Data  Gb  WLComponent.o [1]
sub_menu_dv             0xe1085740    0x24  Data  Gb  ResetSystemMenu.o [1]
sub_menu_main           0xe1082f78    0x9c  Data  Gb  ResetSystemMenu.o [1]
sub_menu_p1of           0xe1085a30    0x18  Data  Gb  ResetSystemMenu.o [1]
sub_menu_p2of           0xe1085a48    0x18  Data  Gb  ResetSystemMenu.o [1]
sub_menu_p3of           0xe1085a60    0x18  Data  Gb  ResetSystemMenu.o [1]
sub_menu_rdis           0xe10859e8    0x18  Data  Gb  ResetSystemMenu.o [1]
sub_menu_reg            0xe10859b8    0x18  Data  Gb  ResetSystemMenu.o [1]
sub_menu_rele           0xe1085764    0x24  Data  Gb  ResetSystemMenu.o [1]
sub_menu_rpz            0xe10825a4   0x27c  Data  Gb  ViewRepozit.o [1]
sub_menu_rpzWL          0xe1083014    0x9c  Data  Gb  ViewRepozitWL.o [1]
sub_menu_tmp            0xe1085a78    0x18  Data  Gb  ResetSystemMenu.o [1]
sub_menu_upr_compAPV    0xe1084990    0x54  Data  Gb  APVComponent.o [1]
sub_menu_upr_compCDI    0xe108571c    0x24  Data  Gb  PRM1Component.o [1]
sub_menu_upr_compDV     0xe10856d4    0x24  Data  Gb  PRM1Component.o [1]
sub_menu_upr_compDZ1    0xe1085500    0x24  Data  Gb  DZ1Component.o [1]
sub_menu_upr_compDZ3    0xe1085548    0x24  Data  Gb  DZ3Component.o [1]
sub_menu_upr_compDZ4    0xe1083cb8    0x60  Data  Gb  DZ4Component.o [1]
sub_menu_upr_compDZ5    0xe1083d78    0x60  Data  Gb  DZ5Component.o [1]
sub_menu_upr_compMTZ1   0xe1084b34    0x54  Data  Gb  MTZ1Component.o [1]
sub_menu_upr_compMTZ2   0xe10834b4    0x78  Data  Gb  MTZ2Component.o [1]
sub_menu_upr_compMTZ3   0xe1083134    0x84  Data  Gb  MTZ3Component.o [1]
sub_menu_upr_compMTZ4   0xe10831b8    0x84  Data  Gb  MTZ4Component.o [1]
sub_menu_upr_compMTZ5   0xe108323c    0x84  Data  Gb  MTZ5Component.o [1]
sub_menu_upr_compNZOP1  0xe1084d64    0x48  Data  Gb  NZOP1Component.o [1]
sub_menu_upr_compNZOP2  0xe1084e3c    0x48  Data  Gb  NZOP2Component.o [1]
sub_menu_upr_compOF     0xe108568c    0x24  Data  Gb  OFComponent.o [1]
sub_menu_upr_compPRM1   0xe1085064    0x3c  Data  Gb  PRM1Component.o [1]
sub_menu_upr_compRELE   0xe10856f8    0x24  Data  Gb  PRM1Component.o [1]
sub_menu_upr_compTZNP1  0xe108352c    0x78  Data  Gb  TZNP1Component.o [1]
sub_menu_upr_compTZNP2  0xe10835a4    0x78  Data  Gb  TZNP2Component.o [1]
sub_menu_upr_compTZNP3  0xe108361c    0x78  Data  Gb  TZNP3Component.o [1]
sub_menu_upr_compTZNP4  0xe1083694    0x78  Data  Gb  TZNP4Component.o [1]
sub_menu_upr_compTZNP5  0xe108370c    0x78  Data  Gb  TZNP5Component.o [1]
sub_menu_upr_compUMM    0xe1085860    0x24  Data  Gb  UMMComponent.o [1]
sub_menu_upr_compUROV   0xe10853a4    0x30  Data  Gb  UROVComponent.o [1]
sub_menu_upr_compUVV    0xe1084f14    0x48  Data  Gb  PRM1Component.o [1]
sub_menu_urov           0xe1085a18    0x18  Data  Gb  ResetSystemMenu.o [1]
sub_menu_ust_compAPV    0xe10833c4    0x78  Data  Gb  APVComponent.o [1]
sub_menu_ust_compDZ1    0xe10854b8    0x24  Data  Gb  DZ1Component.o [1]
sub_menu_ust_compDZ3    0xe10849e4    0x54  Data  Gb  DZ3Component.o [1]
sub_menu_ust_compDZ4    0xe1084a38    0x54  Data  Gb  DZ4Component.o [1]
sub_menu_ust_compDZ5    0xe1084a8c    0x54  Data  Gb  DZ5Component.o [1]
sub_menu_ust_compMTZ1   0xe1083e38    0x60  Data  Gb  MTZ1Component.o [1]
sub_menu_ust_compMTZ2   0xe1083ef8    0x60  Data  Gb  MTZ2Component.o [1]
sub_menu_ust_compMTZ3   0xe1083fb8    0x60  Data  Gb  MTZ3Component.o [1]
sub_menu_ust_compMTZ4   0xe1084078    0x60  Data  Gb  MTZ4Component.o [1]
sub_menu_ust_compMTZ5   0xe1084138    0x60  Data  Gb  MTZ5Component.o [1]
sub_menu_ust_compNZOP1  0xe10838cc    0x6c  Data  Gb  NZOP1Component.o [1]
sub_menu_ust_compNZOP2  0xe1084dac    0x48  Data  Gb  NZOP2Component.o [1]
sub_menu_ust_compOF     0xe1085668    0x24  Data  Gb  OFComponent.o [1]
sub_menu_ust_compPRM1   0xe1085028    0x3c  Data  Gb  PRM1Component.o [1]
sub_menu_ust_compTZNP1  0xe10850a0    0x3c  Data  Gb  TZNP1Component.o [1]
sub_menu_ust_compTZNP2  0xe10850dc    0x3c  Data  Gb  TZNP2Component.o [1]
sub_menu_ust_compTZNP3  0xe1085118    0x3c  Data  Gb  TZNP3Component.o [1]
sub_menu_ust_compTZNP4  0xe1085154    0x3c  Data  Gb  TZNP4Component.o [1]
sub_menu_ust_compTZNP5  0xe1085190    0x3c  Data  Gb  TZNP5Component.o [1]
sub_menu_ust_compUMM    0xe10839a4    0x6c  Data  Gb  UMMComponent.o [1]
sub_menu_ust_compUROV   0xe1085374    0x30  Data  Gb  UROVComponent.o [1]
sub_menu_ust_compUVV    0xe10856b0    0x24  Data  Gb  PRM1Component.o [1]
sub_menu_vid_compAPV    0xe1085428    0x24  Data  Gb  APVComponent.o [1]
sub_menu_vid_compDZ1    0xe10854dc    0x24  Data  Gb  DZ1Component.o [1]
sub_menu_vid_compDZ3    0xe1085524    0x24  Data  Gb  DZ3Component.o [1]
sub_menu_vid_compDZ4    0xe108556c    0x24  Data  Gb  DZ4Component.o [1]
sub_menu_vid_compDZ5    0xe1085590    0x24  Data  Gb  DZ5Component.o [1]
sub_menu_vid_compMTZ1   0xe1084ae0    0x54  Data  Gb  MTZ1Component.o [1]
sub_menu_vid_compMTZ2   0xe10855d8    0x24  Data  Gb  MTZ2Component.o [1]
sub_menu_vid_compMTZ3   0xe10855fc    0x24  Data  Gb  MTZ3Component.o [1]
sub_menu_vid_compMTZ4   0xe1085620    0x24  Data  Gb  MTZ4Component.o [1]
sub_menu_vid_compMTZ5   0xe1085644    0x24  Data  Gb  MTZ5Component.o [1]
sub_menu_vid_compNZOP1  0xe1084d1c    0x48  Data  Gb  NZOP1Component.o [1]
sub_menu_vid_compNZOP2  0xe1084df4    0x48  Data  Gb  NZOP2Component.o [1]
sub_menu_vid_compPRM1   0xe1084ecc    0x48  Data  Gb  PRM1Component.o [1]
sub_menu_vid_compTZNP1  0xe10857ac    0x24  Data  Gb  TZNP1Component.o [1]
sub_menu_vid_compTZNP2  0xe10857d0    0x24  Data  Gb  TZNP2Component.o [1]
sub_menu_vid_compTZNP3  0xe10857f4    0x24  Data  Gb  TZNP3Component.o [1]
sub_menu_vid_compTZNP4  0xe1085818    0x24  Data  Gb  TZNP4Component.o [1]
sub_menu_vid_compTZNP5  0xe108583c    0x24  Data  Gb  TZNP5Component.o [1]
sub_menu_vid_compUMM    0xe1084b88    0x54  Data  Gb  UMMComponent.o [1]
sub_menu_vid_compUROV   0xe10851cc    0x3c  Data  Gb  UROVComponent.o [1]
sub_menu_widel          0xe1085884    0x24  Data  Gb  WLComponent.o [1]
tempLog                 0xe10a282c   0xaf0  Data  Gb  psupervisor.o [1]
tempLog_WL              0xe10aae7c   0x190  Data  Gb  psupervisor.o [1]
testPrtTblState         0xe1085b74     0x8  Data  Gb  AppCn.o [1]
test_external_SRAM      0xe102f980   0x114  Code  Gb  start_settings.o [1]
timer0_user_interrupt   0xe100cf0c    0x20  Code  Gb  u3.o [1]
timer0dev               0xe10ad0e8     0x4  Data  Gb  u3.o [1]
timerEnableWL           0xe10acd2c     0x4  Data  Gb  logictimers.o [1]
timerWaitReqHSU1        0xe10acc18     0x4  Data  Gb  AppCn.o [1]
timerWaitReqHSU2        0xe10ac9b4     0x4  Data  Gb  AppCn.o [1]
timerWaitReqM2m         0xe10acc1c     0x4  Data  Gb  AppCn.o [1]
timerWaitReqSpi         0xe10acc20     0x4  Data  Gb  AppCn.o [1]
timer_num_to_clk_enum   0xe1032ce4     0x4  Data  Lc  lpcAV1_timer_driver.o [1]
timing                  0xe10acd64     0x4  Data  Gb  main.o [1]
timingLoad              0xe10acd68     0x4  Data  Gb  main.o [1]
tmpUSTAVKI              0xe10ab00c   0x190  Data  Gb  ustmanager.o [1]
tmr_init                0xe10ac938    0x10  Data  Lc  lpcAV1_timer_driver.o [1]
tmrdat                  0xe10ac948    0x10  Data  Lc  lpcAV1_timer_driver.o [1]
total_measurement       0xe10a8e20   0x330  Data  Gb  ici_api.o [1]
trigReg                 0xe10acd80     0x4  Data  Gb  main.o [1]
twinDZ2                 0xe10ac98c     0xc  Data  Gb  DZ2Component.o [1]
twinMTZ2                0xe10ac998     0xc  Data  Gb  MTZ2Component.o [1]
twinNZOP1               0xe10ace40     0x4  Data  Gb  NZOP1Component.o [1]
twinTZNP1               0xe10ac958    0x10  Data  Gb  TZNP1Component.o [1]
uiAmtSpiBadRvPacket     0xe10acd44     0x4  Data  Gb  lpu.o [1]
uiAmtSpiGoodRvPacket    0xe10acd40     0x4  Data  Gb  lpu.o [1]
ulCtrTrLpduSpi          0xe10acd34     0x4  Data  Gb  lpu.o [1]
ustavkiZN               0xe10acf4c     0x4  Data  Gb  SettingIci_UMM.o [1]
vec_abort_handler       0xe102fd2c          Code  Gb  lpc32xx_vectors.o [1]
vec_fiq_handler         0xe102fd34          Code  Gb  lpc32xx_vectors.o [1]
vec_irq_handler         0xe102fd30          Code  Gb  lpc32xx_vectors.o [1]
vec_prefetch_handler    0xe102fd28          Code  Gb  lpc32xx_vectors.o [1]
vec_reset_handler       0xe102fd1c          Code  Gb  lpc32xx_vectors.o [1]
vec_swi_handler         0xe102fd24          Code  Gb  lpc32xx_vectors.o [1]
vec_undefined_handler   0xe102fd20          Code  Gb  lpc32xx_vectors.o [1]
vecarea                 0xe10acd30     0x4  Data  Gb  lpc32xx_intc_driver.o [1]
voltage_difference_APV  0xe10acf48     0x4  Data  Gb  SettingIci_data.o [1]
workerUniversal1        0xe10aceb8     0x4  Data  Gb  psvisor_help.o [1]
workerUniversal2        0xe10acebc     0x4  Data  Gb  psvisor_help.o [1]
zonaVertexBD            0xe10a7838   0x500  Data  Gb  isNewZonaMethodVRT.o [1]


[1] = D:\Program Files\IAR Systems\MYWORK\HR1_0100_00_I720_new2\EWP\Debug xRAM\Obj
[2] = command line
[3] = dl5E_aln.a
[4] = m5E_alv.a
[5] = rt5E_al.a

  197 926 bytes of readonly  code memory
   75 876 bytes of readwrite code memory
   47 859 bytes of readonly  data memory
  214 360 bytes of readwrite data memory (+ 152 absolute)

Errors: none
Warnings: 2
